
rtarget:     file format elf64-x86-64


Disassembly of section .init:

0000000000400c48 <_init>:
  400c48:	48 83 ec 08          	sub    $0x8,%rsp
  400c4c:	48 8b 05 a5 43 20 00 	mov    0x2043a5(%rip),%rax        # 604ff8 <__gmon_start__>
  400c53:	48 85 c0             	test   %rax,%rax
  400c56:	74 02                	je     400c5a <_init+0x12>
  400c58:	ff d0                	callq  *%rax
  400c5a:	48 83 c4 08          	add    $0x8,%rsp
  400c5e:	c3                   	retq   

Disassembly of section .plt:

0000000000400c60 <.plt>:
  400c60:	ff 35 a2 43 20 00    	pushq  0x2043a2(%rip)        # 605008 <_GLOBAL_OFFSET_TABLE_+0x8>
  400c66:	ff 25 a4 43 20 00    	jmpq   *0x2043a4(%rip)        # 605010 <_GLOBAL_OFFSET_TABLE_+0x10>
  400c6c:	0f 1f 40 00          	nopl   0x0(%rax)

0000000000400c70 <strcasecmp@plt>:
  400c70:	ff 25 a2 43 20 00    	jmpq   *0x2043a2(%rip)        # 605018 <strcasecmp@GLIBC_2.2.5>
  400c76:	68 00 00 00 00       	pushq  $0x0
  400c7b:	e9 e0 ff ff ff       	jmpq   400c60 <.plt>

0000000000400c80 <__errno_location@plt>:
  400c80:	ff 25 9a 43 20 00    	jmpq   *0x20439a(%rip)        # 605020 <__errno_location@GLIBC_2.2.5>
  400c86:	68 01 00 00 00       	pushq  $0x1
  400c8b:	e9 d0 ff ff ff       	jmpq   400c60 <.plt>

0000000000400c90 <srandom@plt>:
  400c90:	ff 25 92 43 20 00    	jmpq   *0x204392(%rip)        # 605028 <srandom@GLIBC_2.2.5>
  400c96:	68 02 00 00 00       	pushq  $0x2
  400c9b:	e9 c0 ff ff ff       	jmpq   400c60 <.plt>

0000000000400ca0 <strncmp@plt>:
  400ca0:	ff 25 8a 43 20 00    	jmpq   *0x20438a(%rip)        # 605030 <strncmp@GLIBC_2.2.5>
  400ca6:	68 03 00 00 00       	pushq  $0x3
  400cab:	e9 b0 ff ff ff       	jmpq   400c60 <.plt>

0000000000400cb0 <strcpy@plt>:
  400cb0:	ff 25 82 43 20 00    	jmpq   *0x204382(%rip)        # 605038 <strcpy@GLIBC_2.2.5>
  400cb6:	68 04 00 00 00       	pushq  $0x4
  400cbb:	e9 a0 ff ff ff       	jmpq   400c60 <.plt>

0000000000400cc0 <puts@plt>:
  400cc0:	ff 25 7a 43 20 00    	jmpq   *0x20437a(%rip)        # 605040 <puts@GLIBC_2.2.5>
  400cc6:	68 05 00 00 00       	pushq  $0x5
  400ccb:	e9 90 ff ff ff       	jmpq   400c60 <.plt>

0000000000400cd0 <write@plt>:
  400cd0:	ff 25 72 43 20 00    	jmpq   *0x204372(%rip)        # 605048 <write@GLIBC_2.2.5>
  400cd6:	68 06 00 00 00       	pushq  $0x6
  400cdb:	e9 80 ff ff ff       	jmpq   400c60 <.plt>

0000000000400ce0 <__stack_chk_fail@plt>:
  400ce0:	ff 25 6a 43 20 00    	jmpq   *0x20436a(%rip)        # 605050 <__stack_chk_fail@GLIBC_2.4>
  400ce6:	68 07 00 00 00       	pushq  $0x7
  400ceb:	e9 70 ff ff ff       	jmpq   400c60 <.plt>

0000000000400cf0 <mmap@plt>:
  400cf0:	ff 25 62 43 20 00    	jmpq   *0x204362(%rip)        # 605058 <mmap@GLIBC_2.2.5>
  400cf6:	68 08 00 00 00       	pushq  $0x8
  400cfb:	e9 60 ff ff ff       	jmpq   400c60 <.plt>

0000000000400d00 <memset@plt>:
  400d00:	ff 25 5a 43 20 00    	jmpq   *0x20435a(%rip)        # 605060 <memset@GLIBC_2.2.5>
  400d06:	68 09 00 00 00       	pushq  $0x9
  400d0b:	e9 50 ff ff ff       	jmpq   400c60 <.plt>

0000000000400d10 <alarm@plt>:
  400d10:	ff 25 52 43 20 00    	jmpq   *0x204352(%rip)        # 605068 <alarm@GLIBC_2.2.5>
  400d16:	68 0a 00 00 00       	pushq  $0xa
  400d1b:	e9 40 ff ff ff       	jmpq   400c60 <.plt>

0000000000400d20 <close@plt>:
  400d20:	ff 25 4a 43 20 00    	jmpq   *0x20434a(%rip)        # 605070 <close@GLIBC_2.2.5>
  400d26:	68 0b 00 00 00       	pushq  $0xb
  400d2b:	e9 30 ff ff ff       	jmpq   400c60 <.plt>

0000000000400d30 <read@plt>:
  400d30:	ff 25 42 43 20 00    	jmpq   *0x204342(%rip)        # 605078 <read@GLIBC_2.2.5>
  400d36:	68 0c 00 00 00       	pushq  $0xc
  400d3b:	e9 20 ff ff ff       	jmpq   400c60 <.plt>

0000000000400d40 <signal@plt>:
  400d40:	ff 25 3a 43 20 00    	jmpq   *0x20433a(%rip)        # 605080 <signal@GLIBC_2.2.5>
  400d46:	68 0d 00 00 00       	pushq  $0xd
  400d4b:	e9 10 ff ff ff       	jmpq   400c60 <.plt>

0000000000400d50 <gethostbyname@plt>:
  400d50:	ff 25 32 43 20 00    	jmpq   *0x204332(%rip)        # 605088 <gethostbyname@GLIBC_2.2.5>
  400d56:	68 0e 00 00 00       	pushq  $0xe
  400d5b:	e9 00 ff ff ff       	jmpq   400c60 <.plt>

0000000000400d60 <__memmove_chk@plt>:
  400d60:	ff 25 2a 43 20 00    	jmpq   *0x20432a(%rip)        # 605090 <__memmove_chk@GLIBC_2.3.4>
  400d66:	68 0f 00 00 00       	pushq  $0xf
  400d6b:	e9 f0 fe ff ff       	jmpq   400c60 <.plt>

0000000000400d70 <strtol@plt>:
  400d70:	ff 25 22 43 20 00    	jmpq   *0x204322(%rip)        # 605098 <strtol@GLIBC_2.2.5>
  400d76:	68 10 00 00 00       	pushq  $0x10
  400d7b:	e9 e0 fe ff ff       	jmpq   400c60 <.plt>

0000000000400d80 <memcpy@plt>:
  400d80:	ff 25 1a 43 20 00    	jmpq   *0x20431a(%rip)        # 6050a0 <memcpy@GLIBC_2.14>
  400d86:	68 11 00 00 00       	pushq  $0x11
  400d8b:	e9 d0 fe ff ff       	jmpq   400c60 <.plt>

0000000000400d90 <time@plt>:
  400d90:	ff 25 12 43 20 00    	jmpq   *0x204312(%rip)        # 6050a8 <time@GLIBC_2.2.5>
  400d96:	68 12 00 00 00       	pushq  $0x12
  400d9b:	e9 c0 fe ff ff       	jmpq   400c60 <.plt>

0000000000400da0 <random@plt>:
  400da0:	ff 25 0a 43 20 00    	jmpq   *0x20430a(%rip)        # 6050b0 <random@GLIBC_2.2.5>
  400da6:	68 13 00 00 00       	pushq  $0x13
  400dab:	e9 b0 fe ff ff       	jmpq   400c60 <.plt>

0000000000400db0 <_IO_getc@plt>:
  400db0:	ff 25 02 43 20 00    	jmpq   *0x204302(%rip)        # 6050b8 <_IO_getc@GLIBC_2.2.5>
  400db6:	68 14 00 00 00       	pushq  $0x14
  400dbb:	e9 a0 fe ff ff       	jmpq   400c60 <.plt>

0000000000400dc0 <__isoc99_sscanf@plt>:
  400dc0:	ff 25 fa 42 20 00    	jmpq   *0x2042fa(%rip)        # 6050c0 <__isoc99_sscanf@GLIBC_2.7>
  400dc6:	68 15 00 00 00       	pushq  $0x15
  400dcb:	e9 90 fe ff ff       	jmpq   400c60 <.plt>

0000000000400dd0 <munmap@plt>:
  400dd0:	ff 25 f2 42 20 00    	jmpq   *0x2042f2(%rip)        # 6050c8 <munmap@GLIBC_2.2.5>
  400dd6:	68 16 00 00 00       	pushq  $0x16
  400ddb:	e9 80 fe ff ff       	jmpq   400c60 <.plt>

0000000000400de0 <__printf_chk@plt>:
  400de0:	ff 25 ea 42 20 00    	jmpq   *0x2042ea(%rip)        # 6050d0 <__printf_chk@GLIBC_2.3.4>
  400de6:	68 17 00 00 00       	pushq  $0x17
  400deb:	e9 70 fe ff ff       	jmpq   400c60 <.plt>

0000000000400df0 <fopen@plt>:
  400df0:	ff 25 e2 42 20 00    	jmpq   *0x2042e2(%rip)        # 6050d8 <fopen@GLIBC_2.2.5>
  400df6:	68 18 00 00 00       	pushq  $0x18
  400dfb:	e9 60 fe ff ff       	jmpq   400c60 <.plt>

0000000000400e00 <getopt@plt>:
  400e00:	ff 25 da 42 20 00    	jmpq   *0x2042da(%rip)        # 6050e0 <getopt@GLIBC_2.2.5>
  400e06:	68 19 00 00 00       	pushq  $0x19
  400e0b:	e9 50 fe ff ff       	jmpq   400c60 <.plt>

0000000000400e10 <strtoul@plt>:
  400e10:	ff 25 d2 42 20 00    	jmpq   *0x2042d2(%rip)        # 6050e8 <strtoul@GLIBC_2.2.5>
  400e16:	68 1a 00 00 00       	pushq  $0x1a
  400e1b:	e9 40 fe ff ff       	jmpq   400c60 <.plt>

0000000000400e20 <gethostname@plt>:
  400e20:	ff 25 ca 42 20 00    	jmpq   *0x2042ca(%rip)        # 6050f0 <gethostname@GLIBC_2.2.5>
  400e26:	68 1b 00 00 00       	pushq  $0x1b
  400e2b:	e9 30 fe ff ff       	jmpq   400c60 <.plt>

0000000000400e30 <exit@plt>:
  400e30:	ff 25 c2 42 20 00    	jmpq   *0x2042c2(%rip)        # 6050f8 <exit@GLIBC_2.2.5>
  400e36:	68 1c 00 00 00       	pushq  $0x1c
  400e3b:	e9 20 fe ff ff       	jmpq   400c60 <.plt>

0000000000400e40 <connect@plt>:
  400e40:	ff 25 ba 42 20 00    	jmpq   *0x2042ba(%rip)        # 605100 <connect@GLIBC_2.2.5>
  400e46:	68 1d 00 00 00       	pushq  $0x1d
  400e4b:	e9 10 fe ff ff       	jmpq   400c60 <.plt>

0000000000400e50 <__fprintf_chk@plt>:
  400e50:	ff 25 b2 42 20 00    	jmpq   *0x2042b2(%rip)        # 605108 <__fprintf_chk@GLIBC_2.3.4>
  400e56:	68 1e 00 00 00       	pushq  $0x1e
  400e5b:	e9 00 fe ff ff       	jmpq   400c60 <.plt>

0000000000400e60 <__sprintf_chk@plt>:
  400e60:	ff 25 aa 42 20 00    	jmpq   *0x2042aa(%rip)        # 605110 <__sprintf_chk@GLIBC_2.3.4>
  400e66:	68 1f 00 00 00       	pushq  $0x1f
  400e6b:	e9 f0 fd ff ff       	jmpq   400c60 <.plt>

0000000000400e70 <socket@plt>:
  400e70:	ff 25 a2 42 20 00    	jmpq   *0x2042a2(%rip)        # 605118 <socket@GLIBC_2.2.5>
  400e76:	68 20 00 00 00       	pushq  $0x20
  400e7b:	e9 e0 fd ff ff       	jmpq   400c60 <.plt>

Disassembly of section .text:

0000000000400e80 <_start>:
  400e80:	31 ed                	xor    %ebp,%ebp
  400e82:	49 89 d1             	mov    %rdx,%r9
  400e85:	5e                   	pop    %rsi
  400e86:	48 89 e2             	mov    %rsp,%rdx
  400e89:	48 83 e4 f0          	and    $0xfffffffffffffff0,%rsp
  400e8d:	50                   	push   %rax
  400e8e:	54                   	push   %rsp
  400e8f:	49 c7 c0 80 30 40 00 	mov    $0x403080,%r8
  400e96:	48 c7 c1 10 30 40 00 	mov    $0x403010,%rcx
  400e9d:	48 c7 c7 9c 11 40 00 	mov    $0x40119c,%rdi
  400ea4:	ff 15 46 41 20 00    	callq  *0x204146(%rip)        # 604ff0 <__libc_start_main@GLIBC_2.2.5>
  400eaa:	f4                   	hlt    
  400eab:	0f 1f 44 00 00       	nopl   0x0(%rax,%rax,1)

0000000000400eb0 <_dl_relocate_static_pie>:
  400eb0:	f3 c3                	repz retq 
  400eb2:	66 2e 0f 1f 84 00 00 	nopw   %cs:0x0(%rax,%rax,1)
  400eb9:	00 00 00 
  400ebc:	0f 1f 40 00          	nopl   0x0(%rax)

0000000000400ec0 <deregister_tm_clones>:
  400ec0:	55                   	push   %rbp
  400ec1:	b8 90 54 60 00       	mov    $0x605490,%eax
  400ec6:	48 3d 90 54 60 00    	cmp    $0x605490,%rax
  400ecc:	48 89 e5             	mov    %rsp,%rbp
  400ecf:	74 17                	je     400ee8 <deregister_tm_clones+0x28>
  400ed1:	b8 00 00 00 00       	mov    $0x0,%eax
  400ed6:	48 85 c0             	test   %rax,%rax
  400ed9:	74 0d                	je     400ee8 <deregister_tm_clones+0x28>
  400edb:	5d                   	pop    %rbp
  400edc:	bf 90 54 60 00       	mov    $0x605490,%edi
  400ee1:	ff e0                	jmpq   *%rax
  400ee3:	0f 1f 44 00 00       	nopl   0x0(%rax,%rax,1)
  400ee8:	5d                   	pop    %rbp
  400ee9:	c3                   	retq   
  400eea:	66 0f 1f 44 00 00    	nopw   0x0(%rax,%rax,1)

0000000000400ef0 <register_tm_clones>:
  400ef0:	be 90 54 60 00       	mov    $0x605490,%esi
  400ef5:	55                   	push   %rbp
  400ef6:	48 81 ee 90 54 60 00 	sub    $0x605490,%rsi
  400efd:	48 89 e5             	mov    %rsp,%rbp
  400f00:	48 c1 fe 03          	sar    $0x3,%rsi
  400f04:	48 89 f0             	mov    %rsi,%rax
  400f07:	48 c1 e8 3f          	shr    $0x3f,%rax
  400f0b:	48 01 c6             	add    %rax,%rsi
  400f0e:	48 d1 fe             	sar    %rsi
  400f11:	74 15                	je     400f28 <register_tm_clones+0x38>
  400f13:	b8 00 00 00 00       	mov    $0x0,%eax
  400f18:	48 85 c0             	test   %rax,%rax
  400f1b:	74 0b                	je     400f28 <register_tm_clones+0x38>
  400f1d:	5d                   	pop    %rbp
  400f1e:	bf 90 54 60 00       	mov    $0x605490,%edi
  400f23:	ff e0                	jmpq   *%rax
  400f25:	0f 1f 00             	nopl   (%rax)
  400f28:	5d                   	pop    %rbp
  400f29:	c3                   	retq   
  400f2a:	66 0f 1f 44 00 00    	nopw   0x0(%rax,%rax,1)

0000000000400f30 <__do_global_dtors_aux>:
  400f30:	80 3d 91 45 20 00 00 	cmpb   $0x0,0x204591(%rip)        # 6054c8 <completed.7696>
  400f37:	75 17                	jne    400f50 <__do_global_dtors_aux+0x20>
  400f39:	55                   	push   %rbp
  400f3a:	48 89 e5             	mov    %rsp,%rbp
  400f3d:	e8 7e ff ff ff       	callq  400ec0 <deregister_tm_clones>
  400f42:	c6 05 7f 45 20 00 01 	movb   $0x1,0x20457f(%rip)        # 6054c8 <completed.7696>
  400f49:	5d                   	pop    %rbp
  400f4a:	c3                   	retq   
  400f4b:	0f 1f 44 00 00       	nopl   0x0(%rax,%rax,1)
  400f50:	f3 c3                	repz retq 
  400f52:	0f 1f 40 00          	nopl   0x0(%rax)
  400f56:	66 2e 0f 1f 84 00 00 	nopw   %cs:0x0(%rax,%rax,1)
  400f5d:	00 00 00 

0000000000400f60 <frame_dummy>:
  400f60:	55                   	push   %rbp
  400f61:	48 89 e5             	mov    %rsp,%rbp
  400f64:	5d                   	pop    %rbp
  400f65:	eb 89                	jmp    400ef0 <register_tm_clones>

0000000000400f67 <usage>:
  400f67:	48 83 ec 08          	sub    $0x8,%rsp
  400f6b:	48 89 fa             	mov    %rdi,%rdx
  400f6e:	83 3d 93 45 20 00 00 	cmpl   $0x0,0x204593(%rip)        # 605508 <is_checker>
  400f75:	74 50                	je     400fc7 <usage+0x60>
  400f77:	48 8d 35 1a 21 00 00 	lea    0x211a(%rip),%rsi        # 403098 <_IO_stdin_used+0x8>
  400f7e:	bf 01 00 00 00       	mov    $0x1,%edi
  400f83:	b8 00 00 00 00       	mov    $0x0,%eax
  400f88:	e8 53 fe ff ff       	callq  400de0 <__printf_chk@plt>
  400f8d:	48 8d 3d 3c 21 00 00 	lea    0x213c(%rip),%rdi        # 4030d0 <_IO_stdin_used+0x40>
  400f94:	e8 27 fd ff ff       	callq  400cc0 <puts@plt>
  400f99:	48 8d 3d a8 22 00 00 	lea    0x22a8(%rip),%rdi        # 403248 <_IO_stdin_used+0x1b8>
  400fa0:	e8 1b fd ff ff       	callq  400cc0 <puts@plt>
  400fa5:	48 8d 3d 4c 21 00 00 	lea    0x214c(%rip),%rdi        # 4030f8 <_IO_stdin_used+0x68>
  400fac:	e8 0f fd ff ff       	callq  400cc0 <puts@plt>
  400fb1:	48 8d 3d aa 22 00 00 	lea    0x22aa(%rip),%rdi        # 403262 <_IO_stdin_used+0x1d2>
  400fb8:	e8 03 fd ff ff       	callq  400cc0 <puts@plt>
  400fbd:	bf 00 00 00 00       	mov    $0x0,%edi
  400fc2:	e8 69 fe ff ff       	callq  400e30 <exit@plt>
  400fc7:	48 8d 35 b0 22 00 00 	lea    0x22b0(%rip),%rsi        # 40327e <_IO_stdin_used+0x1ee>
  400fce:	bf 01 00 00 00       	mov    $0x1,%edi
  400fd3:	b8 00 00 00 00       	mov    $0x0,%eax
  400fd8:	e8 03 fe ff ff       	callq  400de0 <__printf_chk@plt>
  400fdd:	48 8d 3d 3c 21 00 00 	lea    0x213c(%rip),%rdi        # 403120 <_IO_stdin_used+0x90>
  400fe4:	e8 d7 fc ff ff       	callq  400cc0 <puts@plt>
  400fe9:	48 8d 3d 58 21 00 00 	lea    0x2158(%rip),%rdi        # 403148 <_IO_stdin_used+0xb8>
  400ff0:	e8 cb fc ff ff       	callq  400cc0 <puts@plt>
  400ff5:	48 8d 3d a0 22 00 00 	lea    0x22a0(%rip),%rdi        # 40329c <_IO_stdin_used+0x20c>
  400ffc:	e8 bf fc ff ff       	callq  400cc0 <puts@plt>
  401001:	eb ba                	jmp    400fbd <usage+0x56>

0000000000401003 <initialize_target>:
  401003:	55                   	push   %rbp
  401004:	53                   	push   %rbx
  401005:	48 81 ec 18 21 00 00 	sub    $0x2118,%rsp
  40100c:	89 f5                	mov    %esi,%ebp
  40100e:	64 48 8b 04 25 28 00 	mov    %fs:0x28,%rax
  401015:	00 00 
  401017:	48 89 84 24 08 21 00 	mov    %rax,0x2108(%rsp)
  40101e:	00 
  40101f:	31 c0                	xor    %eax,%eax
  401021:	89 3d d1 44 20 00    	mov    %edi,0x2044d1(%rip)        # 6054f8 <check_level>
  401027:	8b 3d 03 41 20 00    	mov    0x204103(%rip),%edi        # 605130 <target_id>
  40102d:	e8 b5 1f 00 00       	callq  402fe7 <gencookie>
  401032:	89 05 cc 44 20 00    	mov    %eax,0x2044cc(%rip)        # 605504 <cookie>
  401038:	89 c7                	mov    %eax,%edi
  40103a:	e8 a8 1f 00 00       	callq  402fe7 <gencookie>
  40103f:	89 05 bb 44 20 00    	mov    %eax,0x2044bb(%rip)        # 605500 <authkey>
  401045:	8b 05 e5 40 20 00    	mov    0x2040e5(%rip),%eax        # 605130 <target_id>
  40104b:	8d 78 01             	lea    0x1(%rax),%edi
  40104e:	e8 3d fc ff ff       	callq  400c90 <srandom@plt>
  401053:	e8 48 fd ff ff       	callq  400da0 <random@plt>
  401058:	89 c7                	mov    %eax,%edi
  40105a:	e8 28 03 00 00       	callq  401387 <scramble>
  40105f:	89 c3                	mov    %eax,%ebx
  401061:	85 ed                	test   %ebp,%ebp
  401063:	75 54                	jne    4010b9 <initialize_target+0xb6>
  401065:	b8 00 00 00 00       	mov    $0x0,%eax
  40106a:	01 d8                	add    %ebx,%eax
  40106c:	0f b7 c0             	movzwl %ax,%eax
  40106f:	8d 04 c5 00 01 00 00 	lea    0x100(,%rax,8),%eax
  401076:	89 c0                	mov    %eax,%eax
  401078:	48 89 05 01 44 20 00 	mov    %rax,0x204401(%rip)        # 605480 <buf_offset>
  40107f:	c6 05 a2 50 20 00 72 	movb   $0x72,0x2050a2(%rip)        # 606128 <target_prefix>
  401086:	83 3d fb 43 20 00 00 	cmpl   $0x0,0x2043fb(%rip)        # 605488 <notify>
  40108d:	74 09                	je     401098 <initialize_target+0x95>
  40108f:	83 3d 72 44 20 00 00 	cmpl   $0x0,0x204472(%rip)        # 605508 <is_checker>
  401096:	74 39                	je     4010d1 <initialize_target+0xce>
  401098:	48 8b 84 24 08 21 00 	mov    0x2108(%rsp),%rax
  40109f:	00 
  4010a0:	64 48 33 04 25 28 00 	xor    %fs:0x28,%rax
  4010a7:	00 00 
  4010a9:	0f 85 e8 00 00 00    	jne    401197 <initialize_target+0x194>
  4010af:	48 81 c4 18 21 00 00 	add    $0x2118,%rsp
  4010b6:	5b                   	pop    %rbx
  4010b7:	5d                   	pop    %rbp
  4010b8:	c3                   	retq   
  4010b9:	bf 00 00 00 00       	mov    $0x0,%edi
  4010be:	e8 cd fc ff ff       	callq  400d90 <time@plt>
  4010c3:	89 c7                	mov    %eax,%edi
  4010c5:	e8 c6 fb ff ff       	callq  400c90 <srandom@plt>
  4010ca:	e8 d1 fc ff ff       	callq  400da0 <random@plt>
  4010cf:	eb 99                	jmp    40106a <initialize_target+0x67>
  4010d1:	48 89 e7             	mov    %rsp,%rdi
  4010d4:	be 00 01 00 00       	mov    $0x100,%esi
  4010d9:	e8 42 fd ff ff       	callq  400e20 <gethostname@plt>
  4010de:	89 c5                	mov    %eax,%ebp
  4010e0:	85 c0                	test   %eax,%eax
  4010e2:	75 34                	jne    401118 <initialize_target+0x115>
  4010e4:	c7 04 24 79 70 63 68 	movl   $0x68637079,(%rsp)
  4010eb:	66 c7 44 24 04 6f 00 	movw   $0x6f,0x4(%rsp)
  4010f2:	89 c3                	mov    %eax,%ebx
  4010f4:	48 63 c3             	movslq %ebx,%rax
  4010f7:	48 8d 15 62 40 20 00 	lea    0x204062(%rip),%rdx        # 605160 <host_table>
  4010fe:	48 8b 3c c2          	mov    (%rdx,%rax,8),%rdi
  401102:	48 85 ff             	test   %rdi,%rdi
  401105:	74 2c                	je     401133 <initialize_target+0x130>
  401107:	48 89 e6             	mov    %rsp,%rsi
  40110a:	e8 61 fb ff ff       	callq  400c70 <strcasecmp@plt>
  40110f:	85 c0                	test   %eax,%eax
  401111:	74 1b                	je     40112e <initialize_target+0x12b>
  401113:	83 c3 01             	add    $0x1,%ebx
  401116:	eb dc                	jmp    4010f4 <initialize_target+0xf1>
  401118:	48 8d 3d 59 20 00 00 	lea    0x2059(%rip),%rdi        # 403178 <_IO_stdin_used+0xe8>
  40111f:	e8 9c fb ff ff       	callq  400cc0 <puts@plt>
  401124:	bf 08 00 00 00       	mov    $0x8,%edi
  401129:	e8 02 fd ff ff       	callq  400e30 <exit@plt>
  40112e:	bd 01 00 00 00       	mov    $0x1,%ebp
  401133:	85 ed                	test   %ebp,%ebp
  401135:	74 3d                	je     401174 <initialize_target+0x171>
  401137:	48 8d bc 24 00 01 00 	lea    0x100(%rsp),%rdi
  40113e:	00 
  40113f:	e8 d3 1b 00 00       	callq  402d17 <init_driver>
  401144:	85 c0                	test   %eax,%eax
  401146:	0f 89 4c ff ff ff    	jns    401098 <initialize_target+0x95>
  40114c:	48 8d 94 24 00 01 00 	lea    0x100(%rsp),%rdx
  401153:	00 
  401154:	48 8d 35 95 20 00 00 	lea    0x2095(%rip),%rsi        # 4031f0 <_IO_stdin_used+0x160>
  40115b:	bf 01 00 00 00       	mov    $0x1,%edi
  401160:	b8 00 00 00 00       	mov    $0x0,%eax
  401165:	e8 76 fc ff ff       	callq  400de0 <__printf_chk@plt>
  40116a:	bf 08 00 00 00       	mov    $0x8,%edi
  40116f:	e8 bc fc ff ff       	callq  400e30 <exit@plt>
  401174:	48 89 e2             	mov    %rsp,%rdx
  401177:	48 8d 35 32 20 00 00 	lea    0x2032(%rip),%rsi        # 4031b0 <_IO_stdin_used+0x120>
  40117e:	bf 01 00 00 00       	mov    $0x1,%edi
  401183:	b8 00 00 00 00       	mov    $0x0,%eax
  401188:	e8 53 fc ff ff       	callq  400de0 <__printf_chk@plt>
  40118d:	bf 08 00 00 00       	mov    $0x8,%edi
  401192:	e8 99 fc ff ff       	callq  400e30 <exit@plt>
  401197:	e8 44 fb ff ff       	callq  400ce0 <__stack_chk_fail@plt>

000000000040119c <main>:
  40119c:	41 56                	push   %r14
  40119e:	41 55                	push   %r13
  4011a0:	41 54                	push   %r12
  4011a2:	55                   	push   %rbp
  4011a3:	53                   	push   %rbx
  4011a4:	41 89 fc             	mov    %edi,%r12d
  4011a7:	48 89 f3             	mov    %rsi,%rbx
  4011aa:	48 c7 c6 1e 20 40 00 	mov    $0x40201e,%rsi
  4011b1:	bf 0b 00 00 00       	mov    $0xb,%edi
  4011b6:	e8 85 fb ff ff       	callq  400d40 <signal@plt>
  4011bb:	48 c7 c6 ca 1f 40 00 	mov    $0x401fca,%rsi
  4011c2:	bf 07 00 00 00       	mov    $0x7,%edi
  4011c7:	e8 74 fb ff ff       	callq  400d40 <signal@plt>
  4011cc:	48 c7 c6 72 20 40 00 	mov    $0x402072,%rsi
  4011d3:	bf 04 00 00 00       	mov    $0x4,%edi
  4011d8:	e8 63 fb ff ff       	callq  400d40 <signal@plt>
  4011dd:	83 3d 24 43 20 00 00 	cmpl   $0x0,0x204324(%rip)        # 605508 <is_checker>
  4011e4:	75 26                	jne    40120c <main+0x70>
  4011e6:	48 8d 2d c8 20 00 00 	lea    0x20c8(%rip),%rbp        # 4032b5 <_IO_stdin_used+0x225>
  4011ed:	48 8b 05 ac 42 20 00 	mov    0x2042ac(%rip),%rax        # 6054a0 <stdin@@GLIBC_2.2.5>
  4011f4:	48 89 05 f5 42 20 00 	mov    %rax,0x2042f5(%rip)        # 6054f0 <infile>
  4011fb:	41 bd 00 00 00 00    	mov    $0x0,%r13d
  401201:	41 be 00 00 00 00    	mov    $0x0,%r14d
  401207:	e9 8d 00 00 00       	jmpq   401299 <main+0xfd>
  40120c:	48 c7 c6 c6 20 40 00 	mov    $0x4020c6,%rsi
  401213:	bf 0e 00 00 00       	mov    $0xe,%edi
  401218:	e8 23 fb ff ff       	callq  400d40 <signal@plt>
  40121d:	bf 05 00 00 00       	mov    $0x5,%edi
  401222:	e8 e9 fa ff ff       	callq  400d10 <alarm@plt>
  401227:	48 8d 2d 8c 20 00 00 	lea    0x208c(%rip),%rbp        # 4032ba <_IO_stdin_used+0x22a>
  40122e:	eb bd                	jmp    4011ed <main+0x51>
  401230:	48 8b 3b             	mov    (%rbx),%rdi
  401233:	e8 2f fd ff ff       	callq  400f67 <usage>
  401238:	48 8d 35 eb 25 00 00 	lea    0x25eb(%rip),%rsi        # 40382a <trans_char+0xda>
  40123f:	48 8b 3d 62 42 20 00 	mov    0x204262(%rip),%rdi        # 6054a8 <optarg@@GLIBC_2.2.5>
  401246:	e8 a5 fb ff ff       	callq  400df0 <fopen@plt>
  40124b:	48 89 05 9e 42 20 00 	mov    %rax,0x20429e(%rip)        # 6054f0 <infile>
  401252:	48 85 c0             	test   %rax,%rax
  401255:	75 42                	jne    401299 <main+0xfd>
  401257:	48 8b 0d 4a 42 20 00 	mov    0x20424a(%rip),%rcx        # 6054a8 <optarg@@GLIBC_2.2.5>
  40125e:	48 8d 15 5d 20 00 00 	lea    0x205d(%rip),%rdx        # 4032c2 <_IO_stdin_used+0x232>
  401265:	be 01 00 00 00       	mov    $0x1,%esi
  40126a:	48 8b 3d 4f 42 20 00 	mov    0x20424f(%rip),%rdi        # 6054c0 <stderr@@GLIBC_2.2.5>
  401271:	e8 da fb ff ff       	callq  400e50 <__fprintf_chk@plt>
  401276:	b8 01 00 00 00       	mov    $0x1,%eax
  40127b:	e9 d9 00 00 00       	jmpq   401359 <main+0x1bd>
  401280:	ba 10 00 00 00       	mov    $0x10,%edx
  401285:	be 00 00 00 00       	mov    $0x0,%esi
  40128a:	48 8b 3d 17 42 20 00 	mov    0x204217(%rip),%rdi        # 6054a8 <optarg@@GLIBC_2.2.5>
  401291:	e8 7a fb ff ff       	callq  400e10 <strtoul@plt>
  401296:	41 89 c6             	mov    %eax,%r14d
  401299:	48 89 ea             	mov    %rbp,%rdx
  40129c:	48 89 de             	mov    %rbx,%rsi
  40129f:	44 89 e7             	mov    %r12d,%edi
  4012a2:	e8 59 fb ff ff       	callq  400e00 <getopt@plt>
  4012a7:	3c ff                	cmp    $0xff,%al
  4012a9:	74 62                	je     40130d <main+0x171>
  4012ab:	0f be d0             	movsbl %al,%edx
  4012ae:	83 e8 61             	sub    $0x61,%eax
  4012b1:	3c 10                	cmp    $0x10,%al
  4012b3:	77 3a                	ja     4012ef <main+0x153>
  4012b5:	0f b6 c0             	movzbl %al,%eax
  4012b8:	48 8d 0d 41 20 00 00 	lea    0x2041(%rip),%rcx        # 403300 <_IO_stdin_used+0x270>
  4012bf:	48 63 04 81          	movslq (%rcx,%rax,4),%rax
  4012c3:	48 01 c8             	add    %rcx,%rax
  4012c6:	ff e0                	jmpq   *%rax
  4012c8:	ba 0a 00 00 00       	mov    $0xa,%edx
  4012cd:	be 00 00 00 00       	mov    $0x0,%esi
  4012d2:	48 8b 3d cf 41 20 00 	mov    0x2041cf(%rip),%rdi        # 6054a8 <optarg@@GLIBC_2.2.5>
  4012d9:	e8 92 fa ff ff       	callq  400d70 <strtol@plt>
  4012de:	41 89 c5             	mov    %eax,%r13d
  4012e1:	eb b6                	jmp    401299 <main+0xfd>
  4012e3:	c7 05 9b 41 20 00 00 	movl   $0x0,0x20419b(%rip)        # 605488 <notify>
  4012ea:	00 00 00 
  4012ed:	eb aa                	jmp    401299 <main+0xfd>
  4012ef:	48 8d 35 e9 1f 00 00 	lea    0x1fe9(%rip),%rsi        # 4032df <_IO_stdin_used+0x24f>
  4012f6:	bf 01 00 00 00       	mov    $0x1,%edi
  4012fb:	b8 00 00 00 00       	mov    $0x0,%eax
  401300:	e8 db fa ff ff       	callq  400de0 <__printf_chk@plt>
  401305:	48 8b 3b             	mov    (%rbx),%rdi
  401308:	e8 5a fc ff ff       	callq  400f67 <usage>
  40130d:	be 01 00 00 00       	mov    $0x1,%esi
  401312:	44 89 ef             	mov    %r13d,%edi
  401315:	e8 e9 fc ff ff       	callq  401003 <initialize_target>
  40131a:	83 3d e7 41 20 00 00 	cmpl   $0x0,0x2041e7(%rip)        # 605508 <is_checker>
  401321:	74 09                	je     40132c <main+0x190>
  401323:	44 39 35 d6 41 20 00 	cmp    %r14d,0x2041d6(%rip)        # 605500 <authkey>
  40132a:	75 36                	jne    401362 <main+0x1c6>
  40132c:	8b 15 d2 41 20 00    	mov    0x2041d2(%rip),%edx        # 605504 <cookie>
  401332:	48 8d 35 b9 1f 00 00 	lea    0x1fb9(%rip),%rsi        # 4032f2 <_IO_stdin_used+0x262>
  401339:	bf 01 00 00 00       	mov    $0x1,%edi
  40133e:	b8 00 00 00 00       	mov    $0x0,%eax
  401343:	e8 98 fa ff ff       	callq  400de0 <__printf_chk@plt>
  401348:	48 8b 3d 31 41 20 00 	mov    0x204131(%rip),%rdi        # 605480 <buf_offset>
  40134f:	e8 c9 0d 00 00       	callq  40211d <launch>
  401354:	b8 00 00 00 00       	mov    $0x0,%eax
  401359:	5b                   	pop    %rbx
  40135a:	5d                   	pop    %rbp
  40135b:	41 5c                	pop    %r12
  40135d:	41 5d                	pop    %r13
  40135f:	41 5e                	pop    %r14
  401361:	c3                   	retq   
  401362:	44 89 f2             	mov    %r14d,%edx
  401365:	48 8d 35 ac 1e 00 00 	lea    0x1eac(%rip),%rsi        # 403218 <_IO_stdin_used+0x188>
  40136c:	bf 01 00 00 00       	mov    $0x1,%edi
  401371:	b8 00 00 00 00       	mov    $0x0,%eax
  401376:	e8 65 fa ff ff       	callq  400de0 <__printf_chk@plt>
  40137b:	b8 00 00 00 00       	mov    $0x0,%eax
  401380:	e8 a5 08 00 00       	callq  401c2a <check_fail>
  401385:	eb a5                	jmp    40132c <main+0x190>

0000000000401387 <scramble>:
  401387:	48 83 ec 38          	sub    $0x38,%rsp
  40138b:	64 48 8b 04 25 28 00 	mov    %fs:0x28,%rax
  401392:	00 00 
  401394:	48 89 44 24 28       	mov    %rax,0x28(%rsp)
  401399:	31 c0                	xor    %eax,%eax
  40139b:	eb 10                	jmp    4013ad <scramble+0x26>
  40139d:	69 d0 48 27 00 00    	imul   $0x2748,%eax,%edx
  4013a3:	01 fa                	add    %edi,%edx
  4013a5:	89 c1                	mov    %eax,%ecx
  4013a7:	89 14 8c             	mov    %edx,(%rsp,%rcx,4)
  4013aa:	83 c0 01             	add    $0x1,%eax
  4013ad:	83 f8 09             	cmp    $0x9,%eax
  4013b0:	76 eb                	jbe    40139d <scramble+0x16>
  4013b2:	8b 44 24 20          	mov    0x20(%rsp),%eax
  4013b6:	69 c0 d3 1e 00 00    	imul   $0x1ed3,%eax,%eax
  4013bc:	89 44 24 20          	mov    %eax,0x20(%rsp)
  4013c0:	8b 44 24 0c          	mov    0xc(%rsp),%eax
  4013c4:	69 c0 5d 76 00 00    	imul   $0x765d,%eax,%eax
  4013ca:	89 44 24 0c          	mov    %eax,0xc(%rsp)
  4013ce:	8b 04 24             	mov    (%rsp),%eax
  4013d1:	69 c0 f1 46 00 00    	imul   $0x46f1,%eax,%eax
  4013d7:	89 04 24             	mov    %eax,(%rsp)
  4013da:	8b 04 24             	mov    (%rsp),%eax
  4013dd:	69 c0 73 d2 00 00    	imul   $0xd273,%eax,%eax
  4013e3:	89 04 24             	mov    %eax,(%rsp)
  4013e6:	8b 44 24 1c          	mov    0x1c(%rsp),%eax
  4013ea:	69 c0 7c 4b 00 00    	imul   $0x4b7c,%eax,%eax
  4013f0:	89 44 24 1c          	mov    %eax,0x1c(%rsp)
  4013f4:	8b 04 24             	mov    (%rsp),%eax
  4013f7:	69 c0 98 e3 00 00    	imul   $0xe398,%eax,%eax
  4013fd:	89 04 24             	mov    %eax,(%rsp)
  401400:	8b 44 24 10          	mov    0x10(%rsp),%eax
  401404:	69 c0 5d a6 00 00    	imul   $0xa65d,%eax,%eax
  40140a:	89 44 24 10          	mov    %eax,0x10(%rsp)
  40140e:	8b 44 24 04          	mov    0x4(%rsp),%eax
  401412:	69 c0 3e de 00 00    	imul   $0xde3e,%eax,%eax
  401418:	89 44 24 04          	mov    %eax,0x4(%rsp)
  40141c:	8b 44 24 24          	mov    0x24(%rsp),%eax
  401420:	69 c0 fe b9 00 00    	imul   $0xb9fe,%eax,%eax
  401426:	89 44 24 24          	mov    %eax,0x24(%rsp)
  40142a:	8b 44 24 08          	mov    0x8(%rsp),%eax
  40142e:	69 c0 34 cf 00 00    	imul   $0xcf34,%eax,%eax
  401434:	89 44 24 08          	mov    %eax,0x8(%rsp)
  401438:	8b 44 24 14          	mov    0x14(%rsp),%eax
  40143c:	69 c0 01 a8 00 00    	imul   $0xa801,%eax,%eax
  401442:	89 44 24 14          	mov    %eax,0x14(%rsp)
  401446:	8b 44 24 24          	mov    0x24(%rsp),%eax
  40144a:	69 c0 b3 7a 00 00    	imul   $0x7ab3,%eax,%eax
  401450:	89 44 24 24          	mov    %eax,0x24(%rsp)
  401454:	8b 44 24 04          	mov    0x4(%rsp),%eax
  401458:	69 c0 f9 63 00 00    	imul   $0x63f9,%eax,%eax
  40145e:	89 44 24 04          	mov    %eax,0x4(%rsp)
  401462:	8b 44 24 04          	mov    0x4(%rsp),%eax
  401466:	69 c0 6a 38 00 00    	imul   $0x386a,%eax,%eax
  40146c:	89 44 24 04          	mov    %eax,0x4(%rsp)
  401470:	8b 44 24 08          	mov    0x8(%rsp),%eax
  401474:	69 c0 92 d4 00 00    	imul   $0xd492,%eax,%eax
  40147a:	89 44 24 08          	mov    %eax,0x8(%rsp)
  40147e:	8b 44 24 1c          	mov    0x1c(%rsp),%eax
  401482:	69 c0 a0 8f 00 00    	imul   $0x8fa0,%eax,%eax
  401488:	89 44 24 1c          	mov    %eax,0x1c(%rsp)
  40148c:	8b 44 24 14          	mov    0x14(%rsp),%eax
  401490:	69 c0 df 6b 00 00    	imul   $0x6bdf,%eax,%eax
  401496:	89 44 24 14          	mov    %eax,0x14(%rsp)
  40149a:	8b 44 24 10          	mov    0x10(%rsp),%eax
  40149e:	69 c0 a0 7e 00 00    	imul   $0x7ea0,%eax,%eax
  4014a4:	89 44 24 10          	mov    %eax,0x10(%rsp)
  4014a8:	8b 44 24 20          	mov    0x20(%rsp),%eax
  4014ac:	69 c0 e1 ac 00 00    	imul   $0xace1,%eax,%eax
  4014b2:	89 44 24 20          	mov    %eax,0x20(%rsp)
  4014b6:	8b 44 24 08          	mov    0x8(%rsp),%eax
  4014ba:	69 c0 b1 dc 00 00    	imul   $0xdcb1,%eax,%eax
  4014c0:	89 44 24 08          	mov    %eax,0x8(%rsp)
  4014c4:	8b 44 24 1c          	mov    0x1c(%rsp),%eax
  4014c8:	69 c0 65 7b 00 00    	imul   $0x7b65,%eax,%eax
  4014ce:	89 44 24 1c          	mov    %eax,0x1c(%rsp)
  4014d2:	8b 04 24             	mov    (%rsp),%eax
  4014d5:	69 c0 0c 92 00 00    	imul   $0x920c,%eax,%eax
  4014db:	89 04 24             	mov    %eax,(%rsp)
  4014de:	8b 44 24 18          	mov    0x18(%rsp),%eax
  4014e2:	69 c0 c7 bb 00 00    	imul   $0xbbc7,%eax,%eax
  4014e8:	89 44 24 18          	mov    %eax,0x18(%rsp)
  4014ec:	8b 44 24 20          	mov    0x20(%rsp),%eax
  4014f0:	69 c0 39 a7 00 00    	imul   $0xa739,%eax,%eax
  4014f6:	89 44 24 20          	mov    %eax,0x20(%rsp)
  4014fa:	8b 44 24 24          	mov    0x24(%rsp),%eax
  4014fe:	69 c0 8d 23 00 00    	imul   $0x238d,%eax,%eax
  401504:	89 44 24 24          	mov    %eax,0x24(%rsp)
  401508:	8b 44 24 08          	mov    0x8(%rsp),%eax
  40150c:	69 c0 cc 2f 00 00    	imul   $0x2fcc,%eax,%eax
  401512:	89 44 24 08          	mov    %eax,0x8(%rsp)
  401516:	8b 44 24 14          	mov    0x14(%rsp),%eax
  40151a:	69 c0 39 f1 00 00    	imul   $0xf139,%eax,%eax
  401520:	89 44 24 14          	mov    %eax,0x14(%rsp)
  401524:	8b 44 24 20          	mov    0x20(%rsp),%eax
  401528:	69 c0 21 a0 00 00    	imul   $0xa021,%eax,%eax
  40152e:	89 44 24 20          	mov    %eax,0x20(%rsp)
  401532:	8b 44 24 1c          	mov    0x1c(%rsp),%eax
  401536:	69 c0 0f 94 00 00    	imul   $0x940f,%eax,%eax
  40153c:	89 44 24 1c          	mov    %eax,0x1c(%rsp)
  401540:	8b 44 24 1c          	mov    0x1c(%rsp),%eax
  401544:	69 c0 8a bd 00 00    	imul   $0xbd8a,%eax,%eax
  40154a:	89 44 24 1c          	mov    %eax,0x1c(%rsp)
  40154e:	8b 44 24 18          	mov    0x18(%rsp),%eax
  401552:	69 c0 da 2f 00 00    	imul   $0x2fda,%eax,%eax
  401558:	89 44 24 18          	mov    %eax,0x18(%rsp)
  40155c:	8b 44 24 14          	mov    0x14(%rsp),%eax
  401560:	69 c0 07 5c 00 00    	imul   $0x5c07,%eax,%eax
  401566:	89 44 24 14          	mov    %eax,0x14(%rsp)
  40156a:	8b 44 24 24          	mov    0x24(%rsp),%eax
  40156e:	69 c0 27 53 00 00    	imul   $0x5327,%eax,%eax
  401574:	89 44 24 24          	mov    %eax,0x24(%rsp)
  401578:	8b 44 24 20          	mov    0x20(%rsp),%eax
  40157c:	69 c0 89 4e 00 00    	imul   $0x4e89,%eax,%eax
  401582:	89 44 24 20          	mov    %eax,0x20(%rsp)
  401586:	8b 44 24 18          	mov    0x18(%rsp),%eax
  40158a:	69 c0 bb 2b 00 00    	imul   $0x2bbb,%eax,%eax
  401590:	89 44 24 18          	mov    %eax,0x18(%rsp)
  401594:	8b 44 24 20          	mov    0x20(%rsp),%eax
  401598:	69 c0 66 f8 00 00    	imul   $0xf866,%eax,%eax
  40159e:	89 44 24 20          	mov    %eax,0x20(%rsp)
  4015a2:	8b 44 24 18          	mov    0x18(%rsp),%eax
  4015a6:	69 c0 83 eb 00 00    	imul   $0xeb83,%eax,%eax
  4015ac:	89 44 24 18          	mov    %eax,0x18(%rsp)
  4015b0:	8b 44 24 04          	mov    0x4(%rsp),%eax
  4015b4:	69 c0 e3 c8 00 00    	imul   $0xc8e3,%eax,%eax
  4015ba:	89 44 24 04          	mov    %eax,0x4(%rsp)
  4015be:	8b 44 24 10          	mov    0x10(%rsp),%eax
  4015c2:	69 c0 bc fa 00 00    	imul   $0xfabc,%eax,%eax
  4015c8:	89 44 24 10          	mov    %eax,0x10(%rsp)
  4015cc:	8b 44 24 08          	mov    0x8(%rsp),%eax
  4015d0:	69 c0 11 1d 00 00    	imul   $0x1d11,%eax,%eax
  4015d6:	89 44 24 08          	mov    %eax,0x8(%rsp)
  4015da:	8b 44 24 04          	mov    0x4(%rsp),%eax
  4015de:	69 c0 8a e6 00 00    	imul   $0xe68a,%eax,%eax
  4015e4:	89 44 24 04          	mov    %eax,0x4(%rsp)
  4015e8:	8b 44 24 0c          	mov    0xc(%rsp),%eax
  4015ec:	69 c0 d8 e9 00 00    	imul   $0xe9d8,%eax,%eax
  4015f2:	89 44 24 0c          	mov    %eax,0xc(%rsp)
  4015f6:	8b 44 24 20          	mov    0x20(%rsp),%eax
  4015fa:	69 c0 5d f7 00 00    	imul   $0xf75d,%eax,%eax
  401600:	89 44 24 20          	mov    %eax,0x20(%rsp)
  401604:	8b 04 24             	mov    (%rsp),%eax
  401607:	69 c0 f5 2c 00 00    	imul   $0x2cf5,%eax,%eax
  40160d:	89 04 24             	mov    %eax,(%rsp)
  401610:	8b 44 24 14          	mov    0x14(%rsp),%eax
  401614:	69 c0 85 62 00 00    	imul   $0x6285,%eax,%eax
  40161a:	89 44 24 14          	mov    %eax,0x14(%rsp)
  40161e:	8b 44 24 24          	mov    0x24(%rsp),%eax
  401622:	69 c0 0d f4 00 00    	imul   $0xf40d,%eax,%eax
  401628:	89 44 24 24          	mov    %eax,0x24(%rsp)
  40162c:	8b 44 24 18          	mov    0x18(%rsp),%eax
  401630:	69 c0 a9 37 00 00    	imul   $0x37a9,%eax,%eax
  401636:	89 44 24 18          	mov    %eax,0x18(%rsp)
  40163a:	8b 44 24 10          	mov    0x10(%rsp),%eax
  40163e:	69 c0 18 2e 00 00    	imul   $0x2e18,%eax,%eax
  401644:	89 44 24 10          	mov    %eax,0x10(%rsp)
  401648:	8b 44 24 20          	mov    0x20(%rsp),%eax
  40164c:	69 c0 bc 2a 00 00    	imul   $0x2abc,%eax,%eax
  401652:	89 44 24 20          	mov    %eax,0x20(%rsp)
  401656:	8b 44 24 24          	mov    0x24(%rsp),%eax
  40165a:	69 c0 d9 8a 00 00    	imul   $0x8ad9,%eax,%eax
  401660:	89 44 24 24          	mov    %eax,0x24(%rsp)
  401664:	8b 44 24 1c          	mov    0x1c(%rsp),%eax
  401668:	69 c0 dc a7 00 00    	imul   $0xa7dc,%eax,%eax
  40166e:	89 44 24 1c          	mov    %eax,0x1c(%rsp)
  401672:	8b 44 24 08          	mov    0x8(%rsp),%eax
  401676:	69 c0 98 fd 00 00    	imul   $0xfd98,%eax,%eax
  40167c:	89 44 24 08          	mov    %eax,0x8(%rsp)
  401680:	8b 44 24 24          	mov    0x24(%rsp),%eax
  401684:	69 c0 b2 0d 00 00    	imul   $0xdb2,%eax,%eax
  40168a:	89 44 24 24          	mov    %eax,0x24(%rsp)
  40168e:	8b 04 24             	mov    (%rsp),%eax
  401691:	69 c0 ab 3a 00 00    	imul   $0x3aab,%eax,%eax
  401697:	89 04 24             	mov    %eax,(%rsp)
  40169a:	8b 44 24 18          	mov    0x18(%rsp),%eax
  40169e:	69 c0 97 36 00 00    	imul   $0x3697,%eax,%eax
  4016a4:	89 44 24 18          	mov    %eax,0x18(%rsp)
  4016a8:	8b 44 24 24          	mov    0x24(%rsp),%eax
  4016ac:	69 c0 b8 26 00 00    	imul   $0x26b8,%eax,%eax
  4016b2:	89 44 24 24          	mov    %eax,0x24(%rsp)
  4016b6:	8b 44 24 24          	mov    0x24(%rsp),%eax
  4016ba:	69 c0 99 a4 00 00    	imul   $0xa499,%eax,%eax
  4016c0:	89 44 24 24          	mov    %eax,0x24(%rsp)
  4016c4:	8b 44 24 20          	mov    0x20(%rsp),%eax
  4016c8:	69 c0 e4 f4 00 00    	imul   $0xf4e4,%eax,%eax
  4016ce:	89 44 24 20          	mov    %eax,0x20(%rsp)
  4016d2:	8b 44 24 20          	mov    0x20(%rsp),%eax
  4016d6:	69 c0 8b 9a 00 00    	imul   $0x9a8b,%eax,%eax
  4016dc:	89 44 24 20          	mov    %eax,0x20(%rsp)
  4016e0:	8b 44 24 10          	mov    0x10(%rsp),%eax
  4016e4:	69 c0 62 27 00 00    	imul   $0x2762,%eax,%eax
  4016ea:	89 44 24 10          	mov    %eax,0x10(%rsp)
  4016ee:	8b 04 24             	mov    (%rsp),%eax
  4016f1:	69 c0 59 0c 00 00    	imul   $0xc59,%eax,%eax
  4016f7:	89 04 24             	mov    %eax,(%rsp)
  4016fa:	8b 44 24 1c          	mov    0x1c(%rsp),%eax
  4016fe:	69 c0 70 8f 00 00    	imul   $0x8f70,%eax,%eax
  401704:	89 44 24 1c          	mov    %eax,0x1c(%rsp)
  401708:	8b 44 24 08          	mov    0x8(%rsp),%eax
  40170c:	69 c0 84 6b 00 00    	imul   $0x6b84,%eax,%eax
  401712:	89 44 24 08          	mov    %eax,0x8(%rsp)
  401716:	8b 44 24 18          	mov    0x18(%rsp),%eax
  40171a:	69 c0 d3 ce 00 00    	imul   $0xced3,%eax,%eax
  401720:	89 44 24 18          	mov    %eax,0x18(%rsp)
  401724:	8b 44 24 18          	mov    0x18(%rsp),%eax
  401728:	69 c0 2a 3a 00 00    	imul   $0x3a2a,%eax,%eax
  40172e:	89 44 24 18          	mov    %eax,0x18(%rsp)
  401732:	8b 44 24 1c          	mov    0x1c(%rsp),%eax
  401736:	69 c0 b8 ec 00 00    	imul   $0xecb8,%eax,%eax
  40173c:	89 44 24 1c          	mov    %eax,0x1c(%rsp)
  401740:	8b 44 24 10          	mov    0x10(%rsp),%eax
  401744:	69 c0 ec dc 00 00    	imul   $0xdcec,%eax,%eax
  40174a:	89 44 24 10          	mov    %eax,0x10(%rsp)
  40174e:	8b 04 24             	mov    (%rsp),%eax
  401751:	69 c0 67 75 00 00    	imul   $0x7567,%eax,%eax
  401757:	89 04 24             	mov    %eax,(%rsp)
  40175a:	8b 44 24 18          	mov    0x18(%rsp),%eax
  40175e:	69 c0 cb b0 00 00    	imul   $0xb0cb,%eax,%eax
  401764:	89 44 24 18          	mov    %eax,0x18(%rsp)
  401768:	8b 44 24 20          	mov    0x20(%rsp),%eax
  40176c:	69 c0 0c f3 00 00    	imul   $0xf30c,%eax,%eax
  401772:	89 44 24 20          	mov    %eax,0x20(%rsp)
  401776:	8b 44 24 0c          	mov    0xc(%rsp),%eax
  40177a:	69 c0 ce 07 00 00    	imul   $0x7ce,%eax,%eax
  401780:	89 44 24 0c          	mov    %eax,0xc(%rsp)
  401784:	8b 44 24 04          	mov    0x4(%rsp),%eax
  401788:	69 c0 84 04 00 00    	imul   $0x484,%eax,%eax
  40178e:	89 44 24 04          	mov    %eax,0x4(%rsp)
  401792:	8b 44 24 08          	mov    0x8(%rsp),%eax
  401796:	69 c0 56 2a 00 00    	imul   $0x2a56,%eax,%eax
  40179c:	89 44 24 08          	mov    %eax,0x8(%rsp)
  4017a0:	8b 44 24 04          	mov    0x4(%rsp),%eax
  4017a4:	69 c0 5e 48 00 00    	imul   $0x485e,%eax,%eax
  4017aa:	89 44 24 04          	mov    %eax,0x4(%rsp)
  4017ae:	8b 44 24 08          	mov    0x8(%rsp),%eax
  4017b2:	69 c0 42 1b 00 00    	imul   $0x1b42,%eax,%eax
  4017b8:	89 44 24 08          	mov    %eax,0x8(%rsp)
  4017bc:	8b 44 24 18          	mov    0x18(%rsp),%eax
  4017c0:	69 c0 f1 c1 00 00    	imul   $0xc1f1,%eax,%eax
  4017c6:	89 44 24 18          	mov    %eax,0x18(%rsp)
  4017ca:	8b 44 24 0c          	mov    0xc(%rsp),%eax
  4017ce:	69 c0 30 8b 00 00    	imul   $0x8b30,%eax,%eax
  4017d4:	89 44 24 0c          	mov    %eax,0xc(%rsp)
  4017d8:	8b 44 24 04          	mov    0x4(%rsp),%eax
  4017dc:	69 c0 9f 6b 00 00    	imul   $0x6b9f,%eax,%eax
  4017e2:	89 44 24 04          	mov    %eax,0x4(%rsp)
  4017e6:	8b 44 24 10          	mov    0x10(%rsp),%eax
  4017ea:	69 c0 ea 0e 00 00    	imul   $0xeea,%eax,%eax
  4017f0:	89 44 24 10          	mov    %eax,0x10(%rsp)
  4017f4:	8b 44 24 18          	mov    0x18(%rsp),%eax
  4017f8:	69 c0 f5 8c 00 00    	imul   $0x8cf5,%eax,%eax
  4017fe:	89 44 24 18          	mov    %eax,0x18(%rsp)
  401802:	8b 44 24 0c          	mov    0xc(%rsp),%eax
  401806:	69 c0 1f 94 00 00    	imul   $0x941f,%eax,%eax
  40180c:	89 44 24 0c          	mov    %eax,0xc(%rsp)
  401810:	8b 44 24 24          	mov    0x24(%rsp),%eax
  401814:	69 c0 1b 2b 00 00    	imul   $0x2b1b,%eax,%eax
  40181a:	89 44 24 24          	mov    %eax,0x24(%rsp)
  40181e:	8b 44 24 18          	mov    0x18(%rsp),%eax
  401822:	69 c0 fd 63 00 00    	imul   $0x63fd,%eax,%eax
  401828:	89 44 24 18          	mov    %eax,0x18(%rsp)
  40182c:	8b 44 24 08          	mov    0x8(%rsp),%eax
  401830:	69 c0 a9 5b 00 00    	imul   $0x5ba9,%eax,%eax
  401836:	89 44 24 08          	mov    %eax,0x8(%rsp)
  40183a:	8b 44 24 24          	mov    0x24(%rsp),%eax
  40183e:	69 c0 94 50 00 00    	imul   $0x5094,%eax,%eax
  401844:	89 44 24 24          	mov    %eax,0x24(%rsp)
  401848:	8b 44 24 18          	mov    0x18(%rsp),%eax
  40184c:	69 c0 2b fc 00 00    	imul   $0xfc2b,%eax,%eax
  401852:	89 44 24 18          	mov    %eax,0x18(%rsp)
  401856:	8b 44 24 04          	mov    0x4(%rsp),%eax
  40185a:	69 c0 7a 68 00 00    	imul   $0x687a,%eax,%eax
  401860:	89 44 24 04          	mov    %eax,0x4(%rsp)
  401864:	ba 00 00 00 00       	mov    $0x0,%edx
  401869:	b8 00 00 00 00       	mov    $0x0,%eax
  40186e:	eb 0a                	jmp    40187a <scramble+0x4f3>
  401870:	89 d1                	mov    %edx,%ecx
  401872:	8b 0c 8c             	mov    (%rsp,%rcx,4),%ecx
  401875:	01 c8                	add    %ecx,%eax
  401877:	83 c2 01             	add    $0x1,%edx
  40187a:	83 fa 09             	cmp    $0x9,%edx
  40187d:	76 f1                	jbe    401870 <scramble+0x4e9>
  40187f:	48 8b 74 24 28       	mov    0x28(%rsp),%rsi
  401884:	64 48 33 34 25 28 00 	xor    %fs:0x28,%rsi
  40188b:	00 00 
  40188d:	75 05                	jne    401894 <scramble+0x50d>
  40188f:	48 83 c4 38          	add    $0x38,%rsp
  401893:	c3                   	retq   
  401894:	e8 47 f4 ff ff       	callq  400ce0 <__stack_chk_fail@plt>

0000000000401899 <getbuf>:
  401899:	48 83 ec 38          	sub    $0x38,%rsp
  40189d:	48 89 e7             	mov    %rsp,%rdi
  4018a0:	e8 bd 03 00 00       	callq  401c62 <Gets>
  4018a5:	b8 01 00 00 00       	mov    $0x1,%eax
  4018aa:	48 83 c4 38          	add    $0x38,%rsp
  4018ae:	c3                   	retq   

00000000004018af <touch1>:
  4018af:	48 83 ec 08          	sub    $0x8,%rsp
  4018b3:	c7 05 3f 3c 20 00 01 	movl   $0x1,0x203c3f(%rip)        # 6054fc <vlevel>
  4018ba:	00 00 00 
  4018bd:	48 8d 3d a7 1a 00 00 	lea    0x1aa7(%rip),%rdi        # 40336b <_IO_stdin_used+0x2db>
  4018c4:	e8 f7 f3 ff ff       	callq  400cc0 <puts@plt>
  4018c9:	bf 01 00 00 00       	mov    $0x1,%edi
  4018ce:	e8 ff 05 00 00       	callq  401ed2 <validate>
  4018d3:	bf 00 00 00 00       	mov    $0x0,%edi
  4018d8:	e8 53 f5 ff ff       	callq  400e30 <exit@plt>

00000000004018dd <touch2>:
  4018dd:	48 83 ec 08          	sub    $0x8,%rsp
  4018e1:	89 fa                	mov    %edi,%edx
  4018e3:	c7 05 0f 3c 20 00 02 	movl   $0x2,0x203c0f(%rip)        # 6054fc <vlevel>
  4018ea:	00 00 00 
  4018ed:	39 3d 11 3c 20 00    	cmp    %edi,0x203c11(%rip)        # 605504 <cookie>
  4018f3:	74 2a                	je     40191f <touch2+0x42>
  4018f5:	48 8d 35 bc 1a 00 00 	lea    0x1abc(%rip),%rsi        # 4033b8 <_IO_stdin_used+0x328>
  4018fc:	bf 01 00 00 00       	mov    $0x1,%edi
  401901:	b8 00 00 00 00       	mov    $0x0,%eax
  401906:	e8 d5 f4 ff ff       	callq  400de0 <__printf_chk@plt>
  40190b:	bf 02 00 00 00       	mov    $0x2,%edi
  401910:	e8 8d 06 00 00       	callq  401fa2 <fail>
  401915:	bf 00 00 00 00       	mov    $0x0,%edi
  40191a:	e8 11 f5 ff ff       	callq  400e30 <exit@plt>
  40191f:	48 8d 35 6a 1a 00 00 	lea    0x1a6a(%rip),%rsi        # 403390 <_IO_stdin_used+0x300>
  401926:	bf 01 00 00 00       	mov    $0x1,%edi
  40192b:	b8 00 00 00 00       	mov    $0x0,%eax
  401930:	e8 ab f4 ff ff       	callq  400de0 <__printf_chk@plt>
  401935:	bf 02 00 00 00       	mov    $0x2,%edi
  40193a:	e8 93 05 00 00       	callq  401ed2 <validate>
  40193f:	eb d4                	jmp    401915 <touch2+0x38>

0000000000401941 <hexmatch>:
  401941:	41 54                	push   %r12
  401943:	55                   	push   %rbp
  401944:	53                   	push   %rbx
  401945:	48 83 c4 80          	add    $0xffffffffffffff80,%rsp
  401949:	89 fd                	mov    %edi,%ebp
  40194b:	48 89 f3             	mov    %rsi,%rbx
  40194e:	64 48 8b 04 25 28 00 	mov    %fs:0x28,%rax
  401955:	00 00 
  401957:	48 89 44 24 78       	mov    %rax,0x78(%rsp)
  40195c:	31 c0                	xor    %eax,%eax
  40195e:	e8 3d f4 ff ff       	callq  400da0 <random@plt>
  401963:	48 89 c1             	mov    %rax,%rcx
  401966:	48 ba 0b d7 a3 70 3d 	movabs $0xa3d70a3d70a3d70b,%rdx
  40196d:	0a d7 a3 
  401970:	48 f7 ea             	imul   %rdx
  401973:	48 01 ca             	add    %rcx,%rdx
  401976:	48 c1 fa 06          	sar    $0x6,%rdx
  40197a:	48 89 c8             	mov    %rcx,%rax
  40197d:	48 c1 f8 3f          	sar    $0x3f,%rax
  401981:	48 29 c2             	sub    %rax,%rdx
  401984:	48 8d 04 92          	lea    (%rdx,%rdx,4),%rax
  401988:	48 8d 14 80          	lea    (%rax,%rax,4),%rdx
  40198c:	48 8d 04 95 00 00 00 	lea    0x0(,%rdx,4),%rax
  401993:	00 
  401994:	48 29 c1             	sub    %rax,%rcx
  401997:	4c 8d 24 0c          	lea    (%rsp,%rcx,1),%r12
  40199b:	41 89 e8             	mov    %ebp,%r8d
  40199e:	48 8d 0d e3 19 00 00 	lea    0x19e3(%rip),%rcx        # 403388 <_IO_stdin_used+0x2f8>
  4019a5:	48 c7 c2 ff ff ff ff 	mov    $0xffffffffffffffff,%rdx
  4019ac:	be 01 00 00 00       	mov    $0x1,%esi
  4019b1:	4c 89 e7             	mov    %r12,%rdi
  4019b4:	b8 00 00 00 00       	mov    $0x0,%eax
  4019b9:	e8 a2 f4 ff ff       	callq  400e60 <__sprintf_chk@plt>
  4019be:	ba 09 00 00 00       	mov    $0x9,%edx
  4019c3:	4c 89 e6             	mov    %r12,%rsi
  4019c6:	48 89 df             	mov    %rbx,%rdi
  4019c9:	e8 d2 f2 ff ff       	callq  400ca0 <strncmp@plt>
  4019ce:	85 c0                	test   %eax,%eax
  4019d0:	0f 94 c0             	sete   %al
  4019d3:	48 8b 5c 24 78       	mov    0x78(%rsp),%rbx
  4019d8:	64 48 33 1c 25 28 00 	xor    %fs:0x28,%rbx
  4019df:	00 00 
  4019e1:	75 0c                	jne    4019ef <hexmatch+0xae>
  4019e3:	0f b6 c0             	movzbl %al,%eax
  4019e6:	48 83 ec 80          	sub    $0xffffffffffffff80,%rsp
  4019ea:	5b                   	pop    %rbx
  4019eb:	5d                   	pop    %rbp
  4019ec:	41 5c                	pop    %r12
  4019ee:	c3                   	retq   
  4019ef:	e8 ec f2 ff ff       	callq  400ce0 <__stack_chk_fail@plt>

00000000004019f4 <touch3>:
  4019f4:	53                   	push   %rbx
  4019f5:	48 89 fb             	mov    %rdi,%rbx
  4019f8:	c7 05 fa 3a 20 00 03 	movl   $0x3,0x203afa(%rip)        # 6054fc <vlevel>
  4019ff:	00 00 00 
  401a02:	48 89 fe             	mov    %rdi,%rsi
  401a05:	8b 3d f9 3a 20 00    	mov    0x203af9(%rip),%edi        # 605504 <cookie>
  401a0b:	e8 31 ff ff ff       	callq  401941 <hexmatch>
  401a10:	85 c0                	test   %eax,%eax
  401a12:	74 2d                	je     401a41 <touch3+0x4d>
  401a14:	48 89 da             	mov    %rbx,%rdx
  401a17:	48 8d 35 c2 19 00 00 	lea    0x19c2(%rip),%rsi        # 4033e0 <_IO_stdin_used+0x350>
  401a1e:	bf 01 00 00 00       	mov    $0x1,%edi
  401a23:	b8 00 00 00 00       	mov    $0x0,%eax
  401a28:	e8 b3 f3 ff ff       	callq  400de0 <__printf_chk@plt>
  401a2d:	bf 03 00 00 00       	mov    $0x3,%edi
  401a32:	e8 9b 04 00 00       	callq  401ed2 <validate>
  401a37:	bf 00 00 00 00       	mov    $0x0,%edi
  401a3c:	e8 ef f3 ff ff       	callq  400e30 <exit@plt>
  401a41:	48 89 da             	mov    %rbx,%rdx
  401a44:	48 8d 35 bd 19 00 00 	lea    0x19bd(%rip),%rsi        # 403408 <_IO_stdin_used+0x378>
  401a4b:	bf 01 00 00 00       	mov    $0x1,%edi
  401a50:	b8 00 00 00 00       	mov    $0x0,%eax
  401a55:	e8 86 f3 ff ff       	callq  400de0 <__printf_chk@plt>
  401a5a:	bf 03 00 00 00       	mov    $0x3,%edi
  401a5f:	e8 3e 05 00 00       	callq  401fa2 <fail>
  401a64:	eb d1                	jmp    401a37 <touch3+0x43>

0000000000401a66 <test>:
  401a66:	48 83 ec 08          	sub    $0x8,%rsp
  401a6a:	b8 00 00 00 00       	mov    $0x0,%eax
  401a6f:	e8 25 fe ff ff       	callq  401899 <getbuf>
  401a74:	48 8d 0d 34 fe ff ff 	lea    -0x1cc(%rip),%rcx        # 4018af <touch1>
  401a7b:	89 c2                	mov    %eax,%edx
  401a7d:	48 8d 35 ac 19 00 00 	lea    0x19ac(%rip),%rsi        # 403430 <_IO_stdin_used+0x3a0>
  401a84:	bf 01 00 00 00       	mov    $0x1,%edi
  401a89:	b8 00 00 00 00       	mov    $0x0,%eax
  401a8e:	e8 4d f3 ff ff       	callq  400de0 <__printf_chk@plt>
  401a93:	48 83 c4 08          	add    $0x8,%rsp
  401a97:	c3                   	retq   

0000000000401a98 <start_farm>:
  401a98:	b8 01 00 00 00       	mov    $0x1,%eax
  401a9d:	c3                   	retq   

0000000000401a9e <addval_198>:
  401a9e:	8d 87 48 99 c7 90    	lea    -0x6f3866b8(%rdi),%eax
  401aa4:	c3                   	retq   

0000000000401aa5 <addval_121>:
  401aa5:	8d 87 48 89 c7 c1    	lea    -0x3e3876b8(%rdi),%eax
  401aab:	c3                   	retq   

0000000000401aac <setval_160>:
  401aac:	c7 07 48 89 c7 90    	movl   $0x90c78948,(%rdi)
  401ab2:	c3                   	retq   

0000000000401ab3 <addval_326>:
  401ab3:	8d 87 13 d8 90 90    	lea    -0x6f6f27ed(%rdi),%eax
  401ab9:	c3                   	retq   

0000000000401aba <addval_102>:
  401aba:	8d 87 58 90 90 c3    	lea    -0x3c6f6fa8(%rdi),%eax
  401ac0:	c3                   	retq   

0000000000401ac1 <setval_277>:
  401ac1:	c7 07 77 cb 58 91    	movl   $0x9158cb77,(%rdi)
  401ac7:	c3                   	retq   

0000000000401ac8 <getval_471>:
  401ac8:	b8 58 90 c3 ae       	mov    $0xaec39058,%eax
  401acd:	c3                   	retq   

0000000000401ace <getval_125>:
  401ace:	b8 48 89 c7 90       	mov    $0x90c78948,%eax
  401ad3:	c3                   	retq   

0000000000401ad4 <mid_farm>:
  401ad4:	b8 01 00 00 00       	mov    $0x1,%eax
  401ad9:	c3                   	retq   

0000000000401ada <add_xy>:
  401ada:	48 8d 04 37          	lea    (%rdi,%rsi,1),%rax
  401ade:	c3                   	retq   

0000000000401adf <getval_321>:
  401adf:	b8 48 89 e0 c2       	mov    $0xc2e08948,%eax
  401ae4:	c3                   	retq   

0000000000401ae5 <addval_301>:
  401ae5:	8d 87 89 c1 28 c0    	lea    -0x3fd73e77(%rdi),%eax
  401aeb:	c3                   	retq   

0000000000401aec <getval_151>:
  401aec:	b8 48 89 e0 92       	mov    $0x92e08948,%eax
  401af1:	c3                   	retq   

0000000000401af2 <getval_280>:
  401af2:	b8 31 4a 89 e0       	mov    $0xe0894a31,%eax
  401af7:	c3                   	retq   

0000000000401af8 <setval_305>:
  401af8:	c7 07 e0 9d 8d d6    	movl   $0xd68d9de0,(%rdi)
  401afe:	c3                   	retq   

0000000000401aff <setval_221>:
  401aff:	c7 07 89 ca 18 d2    	movl   $0xd218ca89,(%rdi)
  401b05:	c3                   	retq   

0000000000401b06 <setval_348>:
  401b06:	c7 07 89 d6 84 d2    	movl   $0xd284d689,(%rdi)
  401b0c:	c3                   	retq   

0000000000401b0d <setval_426>:
  401b0d:	c7 07 89 c1 08 c9    	movl   $0xc908c189,(%rdi)
  401b13:	c3                   	retq   

0000000000401b14 <setval_489>:
  401b14:	c7 07 09 ca 90 c3    	movl   $0xc390ca09,(%rdi)
  401b1a:	c3                   	retq   

0000000000401b1b <addval_196>:
  401b1b:	8d 87 88 c1 c3 5a    	lea    0x5ac3c188(%rdi),%eax
  401b21:	c3                   	retq   

0000000000401b22 <addval_469>:
  401b22:	8d 87 99 c1 20 d2    	lea    -0x2ddf3e67(%rdi),%eax
  401b28:	c3                   	retq   

0000000000401b29 <getval_229>:
  401b29:	b8 99 ca 90 90       	mov    $0x9090ca99,%eax
  401b2e:	c3                   	retq   

0000000000401b2f <setval_215>:
  401b2f:	c7 07 89 d6 90 c3    	movl   $0xc390d689,(%rdi)
  401b35:	c3                   	retq   

0000000000401b36 <setval_287>:
  401b36:	c7 07 88 d6 90 c3    	movl   $0xc390d688,(%rdi)
  401b3c:	c3                   	retq   

0000000000401b3d <getval_164>:
  401b3d:	b8 89 ca 78 c9       	mov    $0xc978ca89,%eax
  401b42:	c3                   	retq   

0000000000401b43 <getval_110>:
  401b43:	b8 89 c1 90 c3       	mov    $0xc390c189,%eax
  401b48:	c3                   	retq   

0000000000401b49 <getval_228>:
  401b49:	b8 89 d6 60 db       	mov    $0xdb60d689,%eax
  401b4e:	c3                   	retq   

0000000000401b4f <setval_255>:
  401b4f:	c7 07 89 ca 20 c0    	movl   $0xc020ca89,(%rdi)
  401b55:	c3                   	retq   

0000000000401b56 <addval_220>:
  401b56:	8d 87 89 c1 91 90    	lea    -0x6f6e3e77(%rdi),%eax
  401b5c:	c3                   	retq   

0000000000401b5d <setval_199>:
  401b5d:	c7 07 48 89 e0 94    	movl   $0x94e08948,(%rdi)
  401b63:	c3                   	retq   

0000000000401b64 <getval_401>:
  401b64:	b8 09 d6 38 c0       	mov    $0xc038d609,%eax
  401b69:	c3                   	retq   

0000000000401b6a <getval_282>:
  401b6a:	b8 99 ca 84 c9       	mov    $0xc984ca99,%eax
  401b6f:	c3                   	retq   

0000000000401b70 <setval_432>:
  401b70:	c7 07 48 09 e0 90    	movl   $0x90e00948,(%rdi)
  401b76:	c3                   	retq   

0000000000401b77 <getval_373>:
  401b77:	b8 ee 89 d6 c2       	mov    $0xc2d689ee,%eax
  401b7c:	c3                   	retq   

0000000000401b7d <setval_335>:
  401b7d:	c7 07 73 48 89 e0    	movl   $0xe0894873,(%rdi)
  401b83:	c3                   	retq   

0000000000401b84 <setval_210>:
  401b84:	c7 07 89 ca 28 c0    	movl   $0xc028ca89,(%rdi)
  401b8a:	c3                   	retq   

0000000000401b8b <addval_461>:
  401b8b:	8d 87 48 89 e0 90    	lea    -0x6f1f76b8(%rdi),%eax
  401b91:	c3                   	retq   

0000000000401b92 <addval_127>:
  401b92:	8d 87 76 89 c1 92    	lea    -0x6d3e768a(%rdi),%eax
  401b98:	c3                   	retq   

0000000000401b99 <getval_317>:
  401b99:	b8 89 c1 a4 c0       	mov    $0xc0a4c189,%eax
  401b9e:	c3                   	retq   

0000000000401b9f <setval_437>:
  401b9f:	c7 07 89 ca 84 c0    	movl   $0xc084ca89,(%rdi)
  401ba5:	c3                   	retq   

0000000000401ba6 <addval_411>:
  401ba6:	8d 87 48 88 e0 c3    	lea    -0x3c1f77b8(%rdi),%eax
  401bac:	c3                   	retq   

0000000000401bad <addval_219>:
  401bad:	8d 87 89 d6 a4 d2    	lea    -0x2d5b2977(%rdi),%eax
  401bb3:	c3                   	retq   

0000000000401bb4 <end_farm>:
  401bb4:	b8 01 00 00 00       	mov    $0x1,%eax
  401bb9:	c3                   	retq   

0000000000401bba <save_char>:
  401bba:	8b 05 64 45 20 00    	mov    0x204564(%rip),%eax        # 606124 <gets_cnt>
  401bc0:	3d ff 03 00 00       	cmp    $0x3ff,%eax
  401bc5:	7f 4a                	jg     401c11 <save_char+0x57>
  401bc7:	89 f9                	mov    %edi,%ecx
  401bc9:	c0 e9 04             	shr    $0x4,%cl
  401bcc:	8d 14 40             	lea    (%rax,%rax,2),%edx
  401bcf:	4c 8d 05 7a 1b 00 00 	lea    0x1b7a(%rip),%r8        # 403750 <trans_char>
  401bd6:	83 e1 0f             	and    $0xf,%ecx
  401bd9:	45 0f b6 0c 08       	movzbl (%r8,%rcx,1),%r9d
  401bde:	48 8d 0d 3b 39 20 00 	lea    0x20393b(%rip),%rcx        # 605520 <gets_buf>
  401be5:	48 63 f2             	movslq %edx,%rsi
  401be8:	44 88 0c 31          	mov    %r9b,(%rcx,%rsi,1)
  401bec:	8d 72 01             	lea    0x1(%rdx),%esi
  401bef:	83 e7 0f             	and    $0xf,%edi
  401bf2:	41 0f b6 3c 38       	movzbl (%r8,%rdi,1),%edi
  401bf7:	48 63 f6             	movslq %esi,%rsi
  401bfa:	40 88 3c 31          	mov    %dil,(%rcx,%rsi,1)
  401bfe:	83 c2 02             	add    $0x2,%edx
  401c01:	48 63 d2             	movslq %edx,%rdx
  401c04:	c6 04 11 20          	movb   $0x20,(%rcx,%rdx,1)
  401c08:	83 c0 01             	add    $0x1,%eax
  401c0b:	89 05 13 45 20 00    	mov    %eax,0x204513(%rip)        # 606124 <gets_cnt>
  401c11:	f3 c3                	repz retq 

0000000000401c13 <save_term>:
  401c13:	8b 05 0b 45 20 00    	mov    0x20450b(%rip),%eax        # 606124 <gets_cnt>
  401c19:	8d 04 40             	lea    (%rax,%rax,2),%eax
  401c1c:	48 98                	cltq   
  401c1e:	48 8d 15 fb 38 20 00 	lea    0x2038fb(%rip),%rdx        # 605520 <gets_buf>
  401c25:	c6 04 02 00          	movb   $0x0,(%rdx,%rax,1)
  401c29:	c3                   	retq   

0000000000401c2a <check_fail>:
  401c2a:	48 83 ec 08          	sub    $0x8,%rsp
  401c2e:	0f be 15 f3 44 20 00 	movsbl 0x2044f3(%rip),%edx        # 606128 <target_prefix>
  401c35:	4c 8d 05 e4 38 20 00 	lea    0x2038e4(%rip),%r8        # 605520 <gets_buf>
  401c3c:	8b 0d b6 38 20 00    	mov    0x2038b6(%rip),%ecx        # 6054f8 <check_level>
  401c42:	48 8d 35 0d 18 00 00 	lea    0x180d(%rip),%rsi        # 403456 <_IO_stdin_used+0x3c6>
  401c49:	bf 01 00 00 00       	mov    $0x1,%edi
  401c4e:	b8 00 00 00 00       	mov    $0x0,%eax
  401c53:	e8 88 f1 ff ff       	callq  400de0 <__printf_chk@plt>
  401c58:	bf 01 00 00 00       	mov    $0x1,%edi
  401c5d:	e8 ce f1 ff ff       	callq  400e30 <exit@plt>

0000000000401c62 <Gets>:
  401c62:	41 54                	push   %r12
  401c64:	55                   	push   %rbp
  401c65:	53                   	push   %rbx
  401c66:	49 89 fc             	mov    %rdi,%r12
  401c69:	c7 05 b1 44 20 00 00 	movl   $0x0,0x2044b1(%rip)        # 606124 <gets_cnt>
  401c70:	00 00 00 
  401c73:	48 89 fb             	mov    %rdi,%rbx
  401c76:	eb 11                	jmp    401c89 <Gets+0x27>
  401c78:	48 8d 6b 01          	lea    0x1(%rbx),%rbp
  401c7c:	88 03                	mov    %al,(%rbx)
  401c7e:	0f b6 f8             	movzbl %al,%edi
  401c81:	e8 34 ff ff ff       	callq  401bba <save_char>
  401c86:	48 89 eb             	mov    %rbp,%rbx
  401c89:	48 8b 3d 60 38 20 00 	mov    0x203860(%rip),%rdi        # 6054f0 <infile>
  401c90:	e8 1b f1 ff ff       	callq  400db0 <_IO_getc@plt>
  401c95:	83 f8 ff             	cmp    $0xffffffff,%eax
  401c98:	74 05                	je     401c9f <Gets+0x3d>
  401c9a:	83 f8 0a             	cmp    $0xa,%eax
  401c9d:	75 d9                	jne    401c78 <Gets+0x16>
  401c9f:	c6 03 00             	movb   $0x0,(%rbx)
  401ca2:	b8 00 00 00 00       	mov    $0x0,%eax
  401ca7:	e8 67 ff ff ff       	callq  401c13 <save_term>
  401cac:	4c 89 e0             	mov    %r12,%rax
  401caf:	5b                   	pop    %rbx
  401cb0:	5d                   	pop    %rbp
  401cb1:	41 5c                	pop    %r12
  401cb3:	c3                   	retq   

0000000000401cb4 <notify_server>:
  401cb4:	55                   	push   %rbp
  401cb5:	53                   	push   %rbx
  401cb6:	48 81 ec 18 40 00 00 	sub    $0x4018,%rsp
  401cbd:	64 48 8b 04 25 28 00 	mov    %fs:0x28,%rax
  401cc4:	00 00 
  401cc6:	48 89 84 24 08 40 00 	mov    %rax,0x4008(%rsp)
  401ccd:	00 
  401cce:	31 c0                	xor    %eax,%eax
  401cd0:	83 3d 31 38 20 00 00 	cmpl   $0x0,0x203831(%rip)        # 605508 <is_checker>
  401cd7:	0f 85 d2 00 00 00    	jne    401daf <notify_server+0xfb>
  401cdd:	89 fb                	mov    %edi,%ebx
  401cdf:	8b 05 3f 44 20 00    	mov    0x20443f(%rip),%eax        # 606124 <gets_cnt>
  401ce5:	83 c0 64             	add    $0x64,%eax
  401ce8:	3d 00 20 00 00       	cmp    $0x2000,%eax
  401ced:	0f 8f dd 00 00 00    	jg     401dd0 <notify_server+0x11c>
  401cf3:	0f be 05 2e 44 20 00 	movsbl 0x20442e(%rip),%eax        # 606128 <target_prefix>
  401cfa:	83 3d 87 37 20 00 00 	cmpl   $0x0,0x203787(%rip)        # 605488 <notify>
  401d01:	0f 84 e9 00 00 00    	je     401df0 <notify_server+0x13c>
  401d07:	8b 15 f3 37 20 00    	mov    0x2037f3(%rip),%edx        # 605500 <authkey>
  401d0d:	85 db                	test   %ebx,%ebx
  401d0f:	0f 84 e5 00 00 00    	je     401dfa <notify_server+0x146>
  401d15:	48 8d 2d 50 17 00 00 	lea    0x1750(%rip),%rbp        # 40346c <_IO_stdin_used+0x3dc>
  401d1c:	48 89 e7             	mov    %rsp,%rdi
  401d1f:	48 8d 0d fa 37 20 00 	lea    0x2037fa(%rip),%rcx        # 605520 <gets_buf>
  401d26:	51                   	push   %rcx
  401d27:	56                   	push   %rsi
  401d28:	50                   	push   %rax
  401d29:	52                   	push   %rdx
  401d2a:	49 89 e9             	mov    %rbp,%r9
  401d2d:	44 8b 05 fc 33 20 00 	mov    0x2033fc(%rip),%r8d        # 605130 <target_id>
  401d34:	48 8d 0d 3b 17 00 00 	lea    0x173b(%rip),%rcx        # 403476 <_IO_stdin_used+0x3e6>
  401d3b:	ba 00 20 00 00       	mov    $0x2000,%edx
  401d40:	be 01 00 00 00       	mov    $0x1,%esi
  401d45:	b8 00 00 00 00       	mov    $0x0,%eax
  401d4a:	e8 11 f1 ff ff       	callq  400e60 <__sprintf_chk@plt>
  401d4f:	48 83 c4 20          	add    $0x20,%rsp
  401d53:	83 3d 2e 37 20 00 00 	cmpl   $0x0,0x20372e(%rip)        # 605488 <notify>
  401d5a:	0f 84 df 00 00 00    	je     401e3f <notify_server+0x18b>
  401d60:	85 db                	test   %ebx,%ebx
  401d62:	0f 84 c6 00 00 00    	je     401e2e <notify_server+0x17a>
  401d68:	48 89 e1             	mov    %rsp,%rcx
  401d6b:	4c 8d 8c 24 00 20 00 	lea    0x2000(%rsp),%r9
  401d72:	00 
  401d73:	41 b8 00 00 00 00    	mov    $0x0,%r8d
  401d79:	48 8b 15 c8 33 20 00 	mov    0x2033c8(%rip),%rdx        # 605148 <lab>
  401d80:	48 8b 35 c9 33 20 00 	mov    0x2033c9(%rip),%rsi        # 605150 <course>
  401d87:	48 8b 3d b2 33 20 00 	mov    0x2033b2(%rip),%rdi        # 605140 <user_id>
  401d8e:	e8 af 11 00 00       	callq  402f42 <driver_post>
  401d93:	85 c0                	test   %eax,%eax
  401d95:	78 6f                	js     401e06 <notify_server+0x152>
  401d97:	48 8d 3d 1a 18 00 00 	lea    0x181a(%rip),%rdi        # 4035b8 <_IO_stdin_used+0x528>
  401d9e:	e8 1d ef ff ff       	callq  400cc0 <puts@plt>
  401da3:	48 8d 3d f4 16 00 00 	lea    0x16f4(%rip),%rdi        # 40349e <_IO_stdin_used+0x40e>
  401daa:	e8 11 ef ff ff       	callq  400cc0 <puts@plt>
  401daf:	48 8b 84 24 08 40 00 	mov    0x4008(%rsp),%rax
  401db6:	00 
  401db7:	64 48 33 04 25 28 00 	xor    %fs:0x28,%rax
  401dbe:	00 00 
  401dc0:	0f 85 07 01 00 00    	jne    401ecd <notify_server+0x219>
  401dc6:	48 81 c4 18 40 00 00 	add    $0x4018,%rsp
  401dcd:	5b                   	pop    %rbx
  401dce:	5d                   	pop    %rbp
  401dcf:	c3                   	retq   
  401dd0:	48 8d 35 b1 17 00 00 	lea    0x17b1(%rip),%rsi        # 403588 <_IO_stdin_used+0x4f8>
  401dd7:	bf 01 00 00 00       	mov    $0x1,%edi
  401ddc:	b8 00 00 00 00       	mov    $0x0,%eax
  401de1:	e8 fa ef ff ff       	callq  400de0 <__printf_chk@plt>
  401de6:	bf 01 00 00 00       	mov    $0x1,%edi
  401deb:	e8 40 f0 ff ff       	callq  400e30 <exit@plt>
  401df0:	ba ff ff ff ff       	mov    $0xffffffff,%edx
  401df5:	e9 13 ff ff ff       	jmpq   401d0d <notify_server+0x59>
  401dfa:	48 8d 2d 70 16 00 00 	lea    0x1670(%rip),%rbp        # 403471 <_IO_stdin_used+0x3e1>
  401e01:	e9 16 ff ff ff       	jmpq   401d1c <notify_server+0x68>
  401e06:	48 8d 94 24 00 20 00 	lea    0x2000(%rsp),%rdx
  401e0d:	00 
  401e0e:	48 8d 35 7d 16 00 00 	lea    0x167d(%rip),%rsi        # 403492 <_IO_stdin_used+0x402>
  401e15:	bf 01 00 00 00       	mov    $0x1,%edi
  401e1a:	b8 00 00 00 00       	mov    $0x0,%eax
  401e1f:	e8 bc ef ff ff       	callq  400de0 <__printf_chk@plt>
  401e24:	bf 01 00 00 00       	mov    $0x1,%edi
  401e29:	e8 02 f0 ff ff       	callq  400e30 <exit@plt>
  401e2e:	48 8d 3d 73 16 00 00 	lea    0x1673(%rip),%rdi        # 4034a8 <_IO_stdin_used+0x418>
  401e35:	e8 86 ee ff ff       	callq  400cc0 <puts@plt>
  401e3a:	e9 70 ff ff ff       	jmpq   401daf <notify_server+0xfb>
  401e3f:	48 89 ea             	mov    %rbp,%rdx
  401e42:	48 8d 35 a7 17 00 00 	lea    0x17a7(%rip),%rsi        # 4035f0 <_IO_stdin_used+0x560>
  401e49:	bf 01 00 00 00       	mov    $0x1,%edi
  401e4e:	b8 00 00 00 00       	mov    $0x0,%eax
  401e53:	e8 88 ef ff ff       	callq  400de0 <__printf_chk@plt>
  401e58:	48 8b 15 e1 32 20 00 	mov    0x2032e1(%rip),%rdx        # 605140 <user_id>
  401e5f:	48 8d 35 49 16 00 00 	lea    0x1649(%rip),%rsi        # 4034af <_IO_stdin_used+0x41f>
  401e66:	bf 01 00 00 00       	mov    $0x1,%edi
  401e6b:	b8 00 00 00 00       	mov    $0x0,%eax
  401e70:	e8 6b ef ff ff       	callq  400de0 <__printf_chk@plt>
  401e75:	48 8b 15 d4 32 20 00 	mov    0x2032d4(%rip),%rdx        # 605150 <course>
  401e7c:	48 8d 35 39 16 00 00 	lea    0x1639(%rip),%rsi        # 4034bc <_IO_stdin_used+0x42c>
  401e83:	bf 01 00 00 00       	mov    $0x1,%edi
  401e88:	b8 00 00 00 00       	mov    $0x0,%eax
  401e8d:	e8 4e ef ff ff       	callq  400de0 <__printf_chk@plt>
  401e92:	48 8b 15 af 32 20 00 	mov    0x2032af(%rip),%rdx        # 605148 <lab>
  401e99:	48 8d 35 28 16 00 00 	lea    0x1628(%rip),%rsi        # 4034c8 <_IO_stdin_used+0x438>
  401ea0:	bf 01 00 00 00       	mov    $0x1,%edi
  401ea5:	b8 00 00 00 00       	mov    $0x0,%eax
  401eaa:	e8 31 ef ff ff       	callq  400de0 <__printf_chk@plt>
  401eaf:	48 89 e2             	mov    %rsp,%rdx
  401eb2:	48 8d 35 18 16 00 00 	lea    0x1618(%rip),%rsi        # 4034d1 <_IO_stdin_used+0x441>
  401eb9:	bf 01 00 00 00       	mov    $0x1,%edi
  401ebe:	b8 00 00 00 00       	mov    $0x0,%eax
  401ec3:	e8 18 ef ff ff       	callq  400de0 <__printf_chk@plt>
  401ec8:	e9 e2 fe ff ff       	jmpq   401daf <notify_server+0xfb>
  401ecd:	e8 0e ee ff ff       	callq  400ce0 <__stack_chk_fail@plt>

0000000000401ed2 <validate>:
  401ed2:	53                   	push   %rbx
  401ed3:	89 fb                	mov    %edi,%ebx
  401ed5:	83 3d 2c 36 20 00 00 	cmpl   $0x0,0x20362c(%rip)        # 605508 <is_checker>
  401edc:	74 72                	je     401f50 <validate+0x7e>
  401ede:	39 3d 18 36 20 00    	cmp    %edi,0x203618(%rip)        # 6054fc <vlevel>
  401ee4:	75 32                	jne    401f18 <validate+0x46>
  401ee6:	8b 15 0c 36 20 00    	mov    0x20360c(%rip),%edx        # 6054f8 <check_level>
  401eec:	39 fa                	cmp    %edi,%edx
  401eee:	75 3e                	jne    401f2e <validate+0x5c>
  401ef0:	0f be 15 31 42 20 00 	movsbl 0x204231(%rip),%edx        # 606128 <target_prefix>
  401ef7:	4c 8d 05 22 36 20 00 	lea    0x203622(%rip),%r8        # 605520 <gets_buf>
  401efe:	89 f9                	mov    %edi,%ecx
  401f00:	48 8d 35 f4 15 00 00 	lea    0x15f4(%rip),%rsi        # 4034fb <_IO_stdin_used+0x46b>
  401f07:	bf 01 00 00 00       	mov    $0x1,%edi
  401f0c:	b8 00 00 00 00       	mov    $0x0,%eax
  401f11:	e8 ca ee ff ff       	callq  400de0 <__printf_chk@plt>
  401f16:	5b                   	pop    %rbx
  401f17:	c3                   	retq   
  401f18:	48 8d 3d be 15 00 00 	lea    0x15be(%rip),%rdi        # 4034dd <_IO_stdin_used+0x44d>
  401f1f:	e8 9c ed ff ff       	callq  400cc0 <puts@plt>
  401f24:	b8 00 00 00 00       	mov    $0x0,%eax
  401f29:	e8 fc fc ff ff       	callq  401c2a <check_fail>
  401f2e:	89 f9                	mov    %edi,%ecx
  401f30:	48 8d 35 e1 16 00 00 	lea    0x16e1(%rip),%rsi        # 403618 <_IO_stdin_used+0x588>
  401f37:	bf 01 00 00 00       	mov    $0x1,%edi
  401f3c:	b8 00 00 00 00       	mov    $0x0,%eax
  401f41:	e8 9a ee ff ff       	callq  400de0 <__printf_chk@plt>
  401f46:	b8 00 00 00 00       	mov    $0x0,%eax
  401f4b:	e8 da fc ff ff       	callq  401c2a <check_fail>
  401f50:	39 3d a6 35 20 00    	cmp    %edi,0x2035a6(%rip)        # 6054fc <vlevel>
  401f56:	74 1a                	je     401f72 <validate+0xa0>
  401f58:	48 8d 3d 7e 15 00 00 	lea    0x157e(%rip),%rdi        # 4034dd <_IO_stdin_used+0x44d>
  401f5f:	e8 5c ed ff ff       	callq  400cc0 <puts@plt>
  401f64:	89 de                	mov    %ebx,%esi
  401f66:	bf 00 00 00 00       	mov    $0x0,%edi
  401f6b:	e8 44 fd ff ff       	callq  401cb4 <notify_server>
  401f70:	eb a4                	jmp    401f16 <validate+0x44>
  401f72:	0f be 0d af 41 20 00 	movsbl 0x2041af(%rip),%ecx        # 606128 <target_prefix>
  401f79:	89 fa                	mov    %edi,%edx
  401f7b:	48 8d 35 be 16 00 00 	lea    0x16be(%rip),%rsi        # 403640 <_IO_stdin_used+0x5b0>
  401f82:	bf 01 00 00 00       	mov    $0x1,%edi
  401f87:	b8 00 00 00 00       	mov    $0x0,%eax
  401f8c:	e8 4f ee ff ff       	callq  400de0 <__printf_chk@plt>
  401f91:	89 de                	mov    %ebx,%esi
  401f93:	bf 01 00 00 00       	mov    $0x1,%edi
  401f98:	e8 17 fd ff ff       	callq  401cb4 <notify_server>
  401f9d:	e9 74 ff ff ff       	jmpq   401f16 <validate+0x44>

0000000000401fa2 <fail>:
  401fa2:	48 83 ec 08          	sub    $0x8,%rsp
  401fa6:	83 3d 5b 35 20 00 00 	cmpl   $0x0,0x20355b(%rip)        # 605508 <is_checker>
  401fad:	75 11                	jne    401fc0 <fail+0x1e>
  401faf:	89 fe                	mov    %edi,%esi
  401fb1:	bf 00 00 00 00       	mov    $0x0,%edi
  401fb6:	e8 f9 fc ff ff       	callq  401cb4 <notify_server>
  401fbb:	48 83 c4 08          	add    $0x8,%rsp
  401fbf:	c3                   	retq   
  401fc0:	b8 00 00 00 00       	mov    $0x0,%eax
  401fc5:	e8 60 fc ff ff       	callq  401c2a <check_fail>

0000000000401fca <bushandler>:
  401fca:	48 83 ec 08          	sub    $0x8,%rsp
  401fce:	83 3d 33 35 20 00 00 	cmpl   $0x0,0x203533(%rip)        # 605508 <is_checker>
  401fd5:	74 16                	je     401fed <bushandler+0x23>
  401fd7:	48 8d 3d 32 15 00 00 	lea    0x1532(%rip),%rdi        # 403510 <_IO_stdin_used+0x480>
  401fde:	e8 dd ec ff ff       	callq  400cc0 <puts@plt>
  401fe3:	b8 00 00 00 00       	mov    $0x0,%eax
  401fe8:	e8 3d fc ff ff       	callq  401c2a <check_fail>
  401fed:	48 8d 3d 84 16 00 00 	lea    0x1684(%rip),%rdi        # 403678 <_IO_stdin_used+0x5e8>
  401ff4:	e8 c7 ec ff ff       	callq  400cc0 <puts@plt>
  401ff9:	48 8d 3d 1a 15 00 00 	lea    0x151a(%rip),%rdi        # 40351a <_IO_stdin_used+0x48a>
  402000:	e8 bb ec ff ff       	callq  400cc0 <puts@plt>
  402005:	be 00 00 00 00       	mov    $0x0,%esi
  40200a:	bf 00 00 00 00       	mov    $0x0,%edi
  40200f:	e8 a0 fc ff ff       	callq  401cb4 <notify_server>
  402014:	bf 01 00 00 00       	mov    $0x1,%edi
  402019:	e8 12 ee ff ff       	callq  400e30 <exit@plt>

000000000040201e <seghandler>:
  40201e:	48 83 ec 08          	sub    $0x8,%rsp
  402022:	83 3d df 34 20 00 00 	cmpl   $0x0,0x2034df(%rip)        # 605508 <is_checker>
  402029:	74 16                	je     402041 <seghandler+0x23>
  40202b:	48 8d 3d fe 14 00 00 	lea    0x14fe(%rip),%rdi        # 403530 <_IO_stdin_used+0x4a0>
  402032:	e8 89 ec ff ff       	callq  400cc0 <puts@plt>
  402037:	b8 00 00 00 00       	mov    $0x0,%eax
  40203c:	e8 e9 fb ff ff       	callq  401c2a <check_fail>
  402041:	48 8d 3d 50 16 00 00 	lea    0x1650(%rip),%rdi        # 403698 <_IO_stdin_used+0x608>
  402048:	e8 73 ec ff ff       	callq  400cc0 <puts@plt>
  40204d:	48 8d 3d c6 14 00 00 	lea    0x14c6(%rip),%rdi        # 40351a <_IO_stdin_used+0x48a>
  402054:	e8 67 ec ff ff       	callq  400cc0 <puts@plt>
  402059:	be 00 00 00 00       	mov    $0x0,%esi
  40205e:	bf 00 00 00 00       	mov    $0x0,%edi
  402063:	e8 4c fc ff ff       	callq  401cb4 <notify_server>
  402068:	bf 01 00 00 00       	mov    $0x1,%edi
  40206d:	e8 be ed ff ff       	callq  400e30 <exit@plt>

0000000000402072 <illegalhandler>:
  402072:	48 83 ec 08          	sub    $0x8,%rsp
  402076:	83 3d 8b 34 20 00 00 	cmpl   $0x0,0x20348b(%rip)        # 605508 <is_checker>
  40207d:	74 16                	je     402095 <illegalhandler+0x23>
  40207f:	48 8d 3d bd 14 00 00 	lea    0x14bd(%rip),%rdi        # 403543 <_IO_stdin_used+0x4b3>
  402086:	e8 35 ec ff ff       	callq  400cc0 <puts@plt>
  40208b:	b8 00 00 00 00       	mov    $0x0,%eax
  402090:	e8 95 fb ff ff       	callq  401c2a <check_fail>
  402095:	48 8d 3d 24 16 00 00 	lea    0x1624(%rip),%rdi        # 4036c0 <_IO_stdin_used+0x630>
  40209c:	e8 1f ec ff ff       	callq  400cc0 <puts@plt>
  4020a1:	48 8d 3d 72 14 00 00 	lea    0x1472(%rip),%rdi        # 40351a <_IO_stdin_used+0x48a>
  4020a8:	e8 13 ec ff ff       	callq  400cc0 <puts@plt>
  4020ad:	be 00 00 00 00       	mov    $0x0,%esi
  4020b2:	bf 00 00 00 00       	mov    $0x0,%edi
  4020b7:	e8 f8 fb ff ff       	callq  401cb4 <notify_server>
  4020bc:	bf 01 00 00 00       	mov    $0x1,%edi
  4020c1:	e8 6a ed ff ff       	callq  400e30 <exit@plt>

00000000004020c6 <sigalrmhandler>:
  4020c6:	48 83 ec 08          	sub    $0x8,%rsp
  4020ca:	83 3d 37 34 20 00 00 	cmpl   $0x0,0x203437(%rip)        # 605508 <is_checker>
  4020d1:	74 16                	je     4020e9 <sigalrmhandler+0x23>
  4020d3:	48 8d 3d 7d 14 00 00 	lea    0x147d(%rip),%rdi        # 403557 <_IO_stdin_used+0x4c7>
  4020da:	e8 e1 eb ff ff       	callq  400cc0 <puts@plt>
  4020df:	b8 00 00 00 00       	mov    $0x0,%eax
  4020e4:	e8 41 fb ff ff       	callq  401c2a <check_fail>
  4020e9:	ba 05 00 00 00       	mov    $0x5,%edx
  4020ee:	48 8d 35 fb 15 00 00 	lea    0x15fb(%rip),%rsi        # 4036f0 <_IO_stdin_used+0x660>
  4020f5:	bf 01 00 00 00       	mov    $0x1,%edi
  4020fa:	b8 00 00 00 00       	mov    $0x0,%eax
  4020ff:	e8 dc ec ff ff       	callq  400de0 <__printf_chk@plt>
  402104:	be 00 00 00 00       	mov    $0x0,%esi
  402109:	bf 00 00 00 00       	mov    $0x0,%edi
  40210e:	e8 a1 fb ff ff       	callq  401cb4 <notify_server>
  402113:	bf 01 00 00 00       	mov    $0x1,%edi
  402118:	e8 13 ed ff ff       	callq  400e30 <exit@plt>

000000000040211d <launch>:
  40211d:	55                   	push   %rbp
  40211e:	48 89 e5             	mov    %rsp,%rbp
  402121:	48 83 ec 10          	sub    $0x10,%rsp
  402125:	48 89 fa             	mov    %rdi,%rdx
  402128:	64 48 8b 04 25 28 00 	mov    %fs:0x28,%rax
  40212f:	00 00 
  402131:	48 89 45 f8          	mov    %rax,-0x8(%rbp)
  402135:	31 c0                	xor    %eax,%eax
  402137:	48 8d 47 1e          	lea    0x1e(%rdi),%rax
  40213b:	48 83 e0 f0          	and    $0xfffffffffffffff0,%rax
  40213f:	48 29 c4             	sub    %rax,%rsp
  402142:	48 8d 7c 24 0f       	lea    0xf(%rsp),%rdi
  402147:	48 83 e7 f0          	and    $0xfffffffffffffff0,%rdi
  40214b:	be f4 00 00 00       	mov    $0xf4,%esi
  402150:	e8 ab eb ff ff       	callq  400d00 <memset@plt>
  402155:	48 8b 05 44 33 20 00 	mov    0x203344(%rip),%rax        # 6054a0 <stdin@@GLIBC_2.2.5>
  40215c:	48 39 05 8d 33 20 00 	cmp    %rax,0x20338d(%rip)        # 6054f0 <infile>
  402163:	74 3a                	je     40219f <launch+0x82>
  402165:	c7 05 8d 33 20 00 00 	movl   $0x0,0x20338d(%rip)        # 6054fc <vlevel>
  40216c:	00 00 00 
  40216f:	b8 00 00 00 00       	mov    $0x0,%eax
  402174:	e8 ed f8 ff ff       	callq  401a66 <test>
  402179:	83 3d 88 33 20 00 00 	cmpl   $0x0,0x203388(%rip)        # 605508 <is_checker>
  402180:	75 35                	jne    4021b7 <launch+0x9a>
  402182:	48 8d 3d ee 13 00 00 	lea    0x13ee(%rip),%rdi        # 403577 <_IO_stdin_used+0x4e7>
  402189:	e8 32 eb ff ff       	callq  400cc0 <puts@plt>
  40218e:	48 8b 45 f8          	mov    -0x8(%rbp),%rax
  402192:	64 48 33 04 25 28 00 	xor    %fs:0x28,%rax
  402199:	00 00 
  40219b:	75 30                	jne    4021cd <launch+0xb0>
  40219d:	c9                   	leaveq 
  40219e:	c3                   	retq   
  40219f:	48 8d 35 b9 13 00 00 	lea    0x13b9(%rip),%rsi        # 40355f <_IO_stdin_used+0x4cf>
  4021a6:	bf 01 00 00 00       	mov    $0x1,%edi
  4021ab:	b8 00 00 00 00       	mov    $0x0,%eax
  4021b0:	e8 2b ec ff ff       	callq  400de0 <__printf_chk@plt>
  4021b5:	eb ae                	jmp    402165 <launch+0x48>
  4021b7:	48 8d 3d ae 13 00 00 	lea    0x13ae(%rip),%rdi        # 40356c <_IO_stdin_used+0x4dc>
  4021be:	e8 fd ea ff ff       	callq  400cc0 <puts@plt>
  4021c3:	b8 00 00 00 00       	mov    $0x0,%eax
  4021c8:	e8 5d fa ff ff       	callq  401c2a <check_fail>
  4021cd:	e8 0e eb ff ff       	callq  400ce0 <__stack_chk_fail@plt>

00000000004021d2 <stable_launch>:
  4021d2:	53                   	push   %rbx
  4021d3:	48 89 3d 0e 33 20 00 	mov    %rdi,0x20330e(%rip)        # 6054e8 <global_offset>
  4021da:	41 b9 00 00 00 00    	mov    $0x0,%r9d
  4021e0:	41 b8 00 00 00 00    	mov    $0x0,%r8d
  4021e6:	b9 32 01 00 00       	mov    $0x132,%ecx
  4021eb:	ba 07 00 00 00       	mov    $0x7,%edx
  4021f0:	be 00 00 10 00       	mov    $0x100000,%esi
  4021f5:	bf 00 60 58 55       	mov    $0x55586000,%edi
  4021fa:	e8 f1 ea ff ff       	callq  400cf0 <mmap@plt>
  4021ff:	48 89 c3             	mov    %rax,%rbx
  402202:	48 3d 00 60 58 55    	cmp    $0x55586000,%rax
  402208:	75 43                	jne    40224d <stable_launch+0x7b>
  40220a:	48 8d 90 f8 ff 0f 00 	lea    0xffff8(%rax),%rdx
  402211:	48 89 15 18 3f 20 00 	mov    %rdx,0x203f18(%rip)        # 606130 <stack_top>
  402218:	48 89 e0             	mov    %rsp,%rax
  40221b:	48 89 d4             	mov    %rdx,%rsp
  40221e:	48 89 c2             	mov    %rax,%rdx
  402221:	48 89 15 b8 32 20 00 	mov    %rdx,0x2032b8(%rip)        # 6054e0 <global_save_stack>
  402228:	48 8b 3d b9 32 20 00 	mov    0x2032b9(%rip),%rdi        # 6054e8 <global_offset>
  40222f:	e8 e9 fe ff ff       	callq  40211d <launch>
  402234:	48 8b 05 a5 32 20 00 	mov    0x2032a5(%rip),%rax        # 6054e0 <global_save_stack>
  40223b:	48 89 c4             	mov    %rax,%rsp
  40223e:	be 00 00 10 00       	mov    $0x100000,%esi
  402243:	48 89 df             	mov    %rbx,%rdi
  402246:	e8 85 eb ff ff       	callq  400dd0 <munmap@plt>
  40224b:	5b                   	pop    %rbx
  40224c:	c3                   	retq   
  40224d:	be 00 00 10 00       	mov    $0x100000,%esi
  402252:	48 89 c7             	mov    %rax,%rdi
  402255:	e8 76 eb ff ff       	callq  400dd0 <munmap@plt>
  40225a:	b9 00 60 58 55       	mov    $0x55586000,%ecx
  40225f:	48 8d 15 c2 14 00 00 	lea    0x14c2(%rip),%rdx        # 403728 <_IO_stdin_used+0x698>
  402266:	be 01 00 00 00       	mov    $0x1,%esi
  40226b:	48 8b 3d 4e 32 20 00 	mov    0x20324e(%rip),%rdi        # 6054c0 <stderr@@GLIBC_2.2.5>
  402272:	b8 00 00 00 00       	mov    $0x0,%eax
  402277:	e8 d4 eb ff ff       	callq  400e50 <__fprintf_chk@plt>
  40227c:	bf 01 00 00 00       	mov    $0x1,%edi
  402281:	e8 aa eb ff ff       	callq  400e30 <exit@plt>

0000000000402286 <rio_readinitb>:
  402286:	89 37                	mov    %esi,(%rdi)
  402288:	c7 47 04 00 00 00 00 	movl   $0x0,0x4(%rdi)
  40228f:	48 8d 47 10          	lea    0x10(%rdi),%rax
  402293:	48 89 47 08          	mov    %rax,0x8(%rdi)
  402297:	c3                   	retq   

0000000000402298 <sigalrm_handler>:
  402298:	48 83 ec 08          	sub    $0x8,%rsp
  40229c:	b9 00 00 00 00       	mov    $0x0,%ecx
  4022a1:	48 8d 15 b8 14 00 00 	lea    0x14b8(%rip),%rdx        # 403760 <trans_char+0x10>
  4022a8:	be 01 00 00 00       	mov    $0x1,%esi
  4022ad:	48 8b 3d 0c 32 20 00 	mov    0x20320c(%rip),%rdi        # 6054c0 <stderr@@GLIBC_2.2.5>
  4022b4:	b8 00 00 00 00       	mov    $0x0,%eax
  4022b9:	e8 92 eb ff ff       	callq  400e50 <__fprintf_chk@plt>
  4022be:	bf 01 00 00 00       	mov    $0x1,%edi
  4022c3:	e8 68 eb ff ff       	callq  400e30 <exit@plt>

00000000004022c8 <rio_writen>:
  4022c8:	41 55                	push   %r13
  4022ca:	41 54                	push   %r12
  4022cc:	55                   	push   %rbp
  4022cd:	53                   	push   %rbx
  4022ce:	48 83 ec 08          	sub    $0x8,%rsp
  4022d2:	41 89 fc             	mov    %edi,%r12d
  4022d5:	48 89 f5             	mov    %rsi,%rbp
  4022d8:	49 89 d5             	mov    %rdx,%r13
  4022db:	48 89 d3             	mov    %rdx,%rbx
  4022de:	eb 06                	jmp    4022e6 <rio_writen+0x1e>
  4022e0:	48 29 c3             	sub    %rax,%rbx
  4022e3:	48 01 c5             	add    %rax,%rbp
  4022e6:	48 85 db             	test   %rbx,%rbx
  4022e9:	74 24                	je     40230f <rio_writen+0x47>
  4022eb:	48 89 da             	mov    %rbx,%rdx
  4022ee:	48 89 ee             	mov    %rbp,%rsi
  4022f1:	44 89 e7             	mov    %r12d,%edi
  4022f4:	e8 d7 e9 ff ff       	callq  400cd0 <write@plt>
  4022f9:	48 85 c0             	test   %rax,%rax
  4022fc:	7f e2                	jg     4022e0 <rio_writen+0x18>
  4022fe:	e8 7d e9 ff ff       	callq  400c80 <__errno_location@plt>
  402303:	83 38 04             	cmpl   $0x4,(%rax)
  402306:	75 15                	jne    40231d <rio_writen+0x55>
  402308:	b8 00 00 00 00       	mov    $0x0,%eax
  40230d:	eb d1                	jmp    4022e0 <rio_writen+0x18>
  40230f:	4c 89 e8             	mov    %r13,%rax
  402312:	48 83 c4 08          	add    $0x8,%rsp
  402316:	5b                   	pop    %rbx
  402317:	5d                   	pop    %rbp
  402318:	41 5c                	pop    %r12
  40231a:	41 5d                	pop    %r13
  40231c:	c3                   	retq   
  40231d:	48 c7 c0 ff ff ff ff 	mov    $0xffffffffffffffff,%rax
  402324:	eb ec                	jmp    402312 <rio_writen+0x4a>

0000000000402326 <rio_read>:
  402326:	41 55                	push   %r13
  402328:	41 54                	push   %r12
  40232a:	55                   	push   %rbp
  40232b:	53                   	push   %rbx
  40232c:	48 83 ec 08          	sub    $0x8,%rsp
  402330:	48 89 fb             	mov    %rdi,%rbx
  402333:	49 89 f5             	mov    %rsi,%r13
  402336:	49 89 d4             	mov    %rdx,%r12
  402339:	eb 0a                	jmp    402345 <rio_read+0x1f>
  40233b:	e8 40 e9 ff ff       	callq  400c80 <__errno_location@plt>
  402340:	83 38 04             	cmpl   $0x4,(%rax)
  402343:	75 5c                	jne    4023a1 <rio_read+0x7b>
  402345:	8b 6b 04             	mov    0x4(%rbx),%ebp
  402348:	85 ed                	test   %ebp,%ebp
  40234a:	7f 24                	jg     402370 <rio_read+0x4a>
  40234c:	48 8d 6b 10          	lea    0x10(%rbx),%rbp
  402350:	8b 3b                	mov    (%rbx),%edi
  402352:	ba 00 20 00 00       	mov    $0x2000,%edx
  402357:	48 89 ee             	mov    %rbp,%rsi
  40235a:	e8 d1 e9 ff ff       	callq  400d30 <read@plt>
  40235f:	89 43 04             	mov    %eax,0x4(%rbx)
  402362:	85 c0                	test   %eax,%eax
  402364:	78 d5                	js     40233b <rio_read+0x15>
  402366:	85 c0                	test   %eax,%eax
  402368:	74 40                	je     4023aa <rio_read+0x84>
  40236a:	48 89 6b 08          	mov    %rbp,0x8(%rbx)
  40236e:	eb d5                	jmp    402345 <rio_read+0x1f>
  402370:	89 e8                	mov    %ebp,%eax
  402372:	4c 39 e0             	cmp    %r12,%rax
  402375:	72 03                	jb     40237a <rio_read+0x54>
  402377:	44 89 e5             	mov    %r12d,%ebp
  40237a:	4c 63 e5             	movslq %ebp,%r12
  40237d:	48 8b 73 08          	mov    0x8(%rbx),%rsi
  402381:	4c 89 e2             	mov    %r12,%rdx
  402384:	4c 89 ef             	mov    %r13,%rdi
  402387:	e8 f4 e9 ff ff       	callq  400d80 <memcpy@plt>
  40238c:	4c 01 63 08          	add    %r12,0x8(%rbx)
  402390:	29 6b 04             	sub    %ebp,0x4(%rbx)
  402393:	4c 89 e0             	mov    %r12,%rax
  402396:	48 83 c4 08          	add    $0x8,%rsp
  40239a:	5b                   	pop    %rbx
  40239b:	5d                   	pop    %rbp
  40239c:	41 5c                	pop    %r12
  40239e:	41 5d                	pop    %r13
  4023a0:	c3                   	retq   
  4023a1:	48 c7 c0 ff ff ff ff 	mov    $0xffffffffffffffff,%rax
  4023a8:	eb ec                	jmp    402396 <rio_read+0x70>
  4023aa:	b8 00 00 00 00       	mov    $0x0,%eax
  4023af:	eb e5                	jmp    402396 <rio_read+0x70>

00000000004023b1 <rio_readlineb>:
  4023b1:	41 55                	push   %r13
  4023b3:	41 54                	push   %r12
  4023b5:	55                   	push   %rbp
  4023b6:	53                   	push   %rbx
  4023b7:	48 83 ec 18          	sub    $0x18,%rsp
  4023bb:	49 89 fd             	mov    %rdi,%r13
  4023be:	48 89 f5             	mov    %rsi,%rbp
  4023c1:	49 89 d4             	mov    %rdx,%r12
  4023c4:	64 48 8b 04 25 28 00 	mov    %fs:0x28,%rax
  4023cb:	00 00 
  4023cd:	48 89 44 24 08       	mov    %rax,0x8(%rsp)
  4023d2:	31 c0                	xor    %eax,%eax
  4023d4:	bb 01 00 00 00       	mov    $0x1,%ebx
  4023d9:	4c 39 e3             	cmp    %r12,%rbx
  4023dc:	73 47                	jae    402425 <rio_readlineb+0x74>
  4023de:	48 8d 74 24 07       	lea    0x7(%rsp),%rsi
  4023e3:	ba 01 00 00 00       	mov    $0x1,%edx
  4023e8:	4c 89 ef             	mov    %r13,%rdi
  4023eb:	e8 36 ff ff ff       	callq  402326 <rio_read>
  4023f0:	83 f8 01             	cmp    $0x1,%eax
  4023f3:	75 1c                	jne    402411 <rio_readlineb+0x60>
  4023f5:	48 8d 45 01          	lea    0x1(%rbp),%rax
  4023f9:	0f b6 54 24 07       	movzbl 0x7(%rsp),%edx
  4023fe:	88 55 00             	mov    %dl,0x0(%rbp)
  402401:	80 7c 24 07 0a       	cmpb   $0xa,0x7(%rsp)
  402406:	74 1a                	je     402422 <rio_readlineb+0x71>
  402408:	48 83 c3 01          	add    $0x1,%rbx
  40240c:	48 89 c5             	mov    %rax,%rbp
  40240f:	eb c8                	jmp    4023d9 <rio_readlineb+0x28>
  402411:	85 c0                	test   %eax,%eax
  402413:	75 32                	jne    402447 <rio_readlineb+0x96>
  402415:	48 83 fb 01          	cmp    $0x1,%rbx
  402419:	75 0a                	jne    402425 <rio_readlineb+0x74>
  40241b:	b8 00 00 00 00       	mov    $0x0,%eax
  402420:	eb 0a                	jmp    40242c <rio_readlineb+0x7b>
  402422:	48 89 c5             	mov    %rax,%rbp
  402425:	c6 45 00 00          	movb   $0x0,0x0(%rbp)
  402429:	48 89 d8             	mov    %rbx,%rax
  40242c:	48 8b 4c 24 08       	mov    0x8(%rsp),%rcx
  402431:	64 48 33 0c 25 28 00 	xor    %fs:0x28,%rcx
  402438:	00 00 
  40243a:	75 14                	jne    402450 <rio_readlineb+0x9f>
  40243c:	48 83 c4 18          	add    $0x18,%rsp
  402440:	5b                   	pop    %rbx
  402441:	5d                   	pop    %rbp
  402442:	41 5c                	pop    %r12
  402444:	41 5d                	pop    %r13
  402446:	c3                   	retq   
  402447:	48 c7 c0 ff ff ff ff 	mov    $0xffffffffffffffff,%rax
  40244e:	eb dc                	jmp    40242c <rio_readlineb+0x7b>
  402450:	e8 8b e8 ff ff       	callq  400ce0 <__stack_chk_fail@plt>

0000000000402455 <urlencode>:
  402455:	41 54                	push   %r12
  402457:	55                   	push   %rbp
  402458:	53                   	push   %rbx
  402459:	48 83 ec 10          	sub    $0x10,%rsp
  40245d:	48 89 fb             	mov    %rdi,%rbx
  402460:	48 89 f5             	mov    %rsi,%rbp
  402463:	64 48 8b 04 25 28 00 	mov    %fs:0x28,%rax
  40246a:	00 00 
  40246c:	48 89 44 24 08       	mov    %rax,0x8(%rsp)
  402471:	31 c0                	xor    %eax,%eax
  402473:	48 c7 c1 ff ff ff ff 	mov    $0xffffffffffffffff,%rcx
  40247a:	f2 ae                	repnz scas %es:(%rdi),%al
  40247c:	48 89 ce             	mov    %rcx,%rsi
  40247f:	48 f7 d6             	not    %rsi
  402482:	8d 46 ff             	lea    -0x1(%rsi),%eax
  402485:	eb 0f                	jmp    402496 <urlencode+0x41>
  402487:	44 88 45 00          	mov    %r8b,0x0(%rbp)
  40248b:	48 8d 6d 01          	lea    0x1(%rbp),%rbp
  40248f:	48 83 c3 01          	add    $0x1,%rbx
  402493:	44 89 e0             	mov    %r12d,%eax
  402496:	44 8d 60 ff          	lea    -0x1(%rax),%r12d
  40249a:	85 c0                	test   %eax,%eax
  40249c:	0f 84 a8 00 00 00    	je     40254a <urlencode+0xf5>
  4024a2:	44 0f b6 03          	movzbl (%rbx),%r8d
  4024a6:	41 80 f8 2a          	cmp    $0x2a,%r8b
  4024aa:	0f 94 c2             	sete   %dl
  4024ad:	41 80 f8 2d          	cmp    $0x2d,%r8b
  4024b1:	0f 94 c0             	sete   %al
  4024b4:	08 c2                	or     %al,%dl
  4024b6:	75 cf                	jne    402487 <urlencode+0x32>
  4024b8:	41 80 f8 2e          	cmp    $0x2e,%r8b
  4024bc:	74 c9                	je     402487 <urlencode+0x32>
  4024be:	41 80 f8 5f          	cmp    $0x5f,%r8b
  4024c2:	74 c3                	je     402487 <urlencode+0x32>
  4024c4:	41 8d 40 d0          	lea    -0x30(%r8),%eax
  4024c8:	3c 09                	cmp    $0x9,%al
  4024ca:	76 bb                	jbe    402487 <urlencode+0x32>
  4024cc:	41 8d 40 bf          	lea    -0x41(%r8),%eax
  4024d0:	3c 19                	cmp    $0x19,%al
  4024d2:	76 b3                	jbe    402487 <urlencode+0x32>
  4024d4:	41 8d 40 9f          	lea    -0x61(%r8),%eax
  4024d8:	3c 19                	cmp    $0x19,%al
  4024da:	76 ab                	jbe    402487 <urlencode+0x32>
  4024dc:	41 80 f8 20          	cmp    $0x20,%r8b
  4024e0:	74 56                	je     402538 <urlencode+0xe3>
  4024e2:	41 8d 40 e0          	lea    -0x20(%r8),%eax
  4024e6:	3c 5f                	cmp    $0x5f,%al
  4024e8:	0f 96 c2             	setbe  %dl
  4024eb:	41 80 f8 09          	cmp    $0x9,%r8b
  4024ef:	0f 94 c0             	sete   %al
  4024f2:	08 c2                	or     %al,%dl
  4024f4:	74 4f                	je     402545 <urlencode+0xf0>
  4024f6:	48 89 e7             	mov    %rsp,%rdi
  4024f9:	45 0f b6 c0          	movzbl %r8b,%r8d
  4024fd:	48 8d 0d f4 12 00 00 	lea    0x12f4(%rip),%rcx        # 4037f8 <trans_char+0xa8>
  402504:	ba 08 00 00 00       	mov    $0x8,%edx
  402509:	be 01 00 00 00       	mov    $0x1,%esi
  40250e:	b8 00 00 00 00       	mov    $0x0,%eax
  402513:	e8 48 e9 ff ff       	callq  400e60 <__sprintf_chk@plt>
  402518:	0f b6 04 24          	movzbl (%rsp),%eax
  40251c:	88 45 00             	mov    %al,0x0(%rbp)
  40251f:	0f b6 44 24 01       	movzbl 0x1(%rsp),%eax
  402524:	88 45 01             	mov    %al,0x1(%rbp)
  402527:	0f b6 44 24 02       	movzbl 0x2(%rsp),%eax
  40252c:	88 45 02             	mov    %al,0x2(%rbp)
  40252f:	48 8d 6d 03          	lea    0x3(%rbp),%rbp
  402533:	e9 57 ff ff ff       	jmpq   40248f <urlencode+0x3a>
  402538:	c6 45 00 2b          	movb   $0x2b,0x0(%rbp)
  40253c:	48 8d 6d 01          	lea    0x1(%rbp),%rbp
  402540:	e9 4a ff ff ff       	jmpq   40248f <urlencode+0x3a>
  402545:	b8 ff ff ff ff       	mov    $0xffffffff,%eax
  40254a:	48 8b 74 24 08       	mov    0x8(%rsp),%rsi
  40254f:	64 48 33 34 25 28 00 	xor    %fs:0x28,%rsi
  402556:	00 00 
  402558:	75 09                	jne    402563 <urlencode+0x10e>
  40255a:	48 83 c4 10          	add    $0x10,%rsp
  40255e:	5b                   	pop    %rbx
  40255f:	5d                   	pop    %rbp
  402560:	41 5c                	pop    %r12
  402562:	c3                   	retq   
  402563:	e8 78 e7 ff ff       	callq  400ce0 <__stack_chk_fail@plt>

0000000000402568 <submitr>:
  402568:	41 57                	push   %r15
  40256a:	41 56                	push   %r14
  40256c:	41 55                	push   %r13
  40256e:	41 54                	push   %r12
  402570:	55                   	push   %rbp
  402571:	53                   	push   %rbx
  402572:	48 81 ec 68 a0 00 00 	sub    $0xa068,%rsp
  402579:	49 89 fd             	mov    %rdi,%r13
  40257c:	89 74 24 14          	mov    %esi,0x14(%rsp)
  402580:	49 89 d7             	mov    %rdx,%r15
  402583:	48 89 4c 24 08       	mov    %rcx,0x8(%rsp)
  402588:	4c 89 44 24 18       	mov    %r8,0x18(%rsp)
  40258d:	4d 89 ce             	mov    %r9,%r14
  402590:	48 8b ac 24 a0 a0 00 	mov    0xa0a0(%rsp),%rbp
  402597:	00 
  402598:	64 48 8b 04 25 28 00 	mov    %fs:0x28,%rax
  40259f:	00 00 
  4025a1:	48 89 84 24 58 a0 00 	mov    %rax,0xa058(%rsp)
  4025a8:	00 
  4025a9:	31 c0                	xor    %eax,%eax
  4025ab:	c7 44 24 2c 00 00 00 	movl   $0x0,0x2c(%rsp)
  4025b2:	00 
  4025b3:	ba 00 00 00 00       	mov    $0x0,%edx
  4025b8:	be 01 00 00 00       	mov    $0x1,%esi
  4025bd:	bf 02 00 00 00       	mov    $0x2,%edi
  4025c2:	e8 a9 e8 ff ff       	callq  400e70 <socket@plt>
  4025c7:	85 c0                	test   %eax,%eax
  4025c9:	0f 88 a9 02 00 00    	js     402878 <submitr+0x310>
  4025cf:	89 c3                	mov    %eax,%ebx
  4025d1:	4c 89 ef             	mov    %r13,%rdi
  4025d4:	e8 77 e7 ff ff       	callq  400d50 <gethostbyname@plt>
  4025d9:	48 85 c0             	test   %rax,%rax
  4025dc:	0f 84 e2 02 00 00    	je     4028c4 <submitr+0x35c>
  4025e2:	4c 8d 64 24 30       	lea    0x30(%rsp),%r12
  4025e7:	48 c7 44 24 32 00 00 	movq   $0x0,0x32(%rsp)
  4025ee:	00 00 
  4025f0:	c7 44 24 3a 00 00 00 	movl   $0x0,0x3a(%rsp)
  4025f7:	00 
  4025f8:	66 c7 44 24 3e 00 00 	movw   $0x0,0x3e(%rsp)
  4025ff:	66 c7 44 24 30 02 00 	movw   $0x2,0x30(%rsp)
  402606:	48 63 50 14          	movslq 0x14(%rax),%rdx
  40260a:	48 8b 40 18          	mov    0x18(%rax),%rax
  40260e:	48 8b 30             	mov    (%rax),%rsi
  402611:	48 8d 7c 24 34       	lea    0x34(%rsp),%rdi
  402616:	b9 0c 00 00 00       	mov    $0xc,%ecx
  40261b:	e8 40 e7 ff ff       	callq  400d60 <__memmove_chk@plt>
  402620:	0f b7 44 24 14       	movzwl 0x14(%rsp),%eax
  402625:	66 c1 c8 08          	ror    $0x8,%ax
  402629:	66 89 44 24 32       	mov    %ax,0x32(%rsp)
  40262e:	ba 10 00 00 00       	mov    $0x10,%edx
  402633:	4c 89 e6             	mov    %r12,%rsi
  402636:	89 df                	mov    %ebx,%edi
  402638:	e8 03 e8 ff ff       	callq  400e40 <connect@plt>
  40263d:	85 c0                	test   %eax,%eax
  40263f:	0f 88 e7 02 00 00    	js     40292c <submitr+0x3c4>
  402645:	48 c7 c6 ff ff ff ff 	mov    $0xffffffffffffffff,%rsi
  40264c:	b8 00 00 00 00       	mov    $0x0,%eax
  402651:	48 89 f1             	mov    %rsi,%rcx
  402654:	4c 89 f7             	mov    %r14,%rdi
  402657:	f2 ae                	repnz scas %es:(%rdi),%al
  402659:	48 89 ca             	mov    %rcx,%rdx
  40265c:	48 f7 d2             	not    %rdx
  40265f:	48 89 f1             	mov    %rsi,%rcx
  402662:	4c 89 ff             	mov    %r15,%rdi
  402665:	f2 ae                	repnz scas %es:(%rdi),%al
  402667:	48 f7 d1             	not    %rcx
  40266a:	49 89 c8             	mov    %rcx,%r8
  40266d:	48 89 f1             	mov    %rsi,%rcx
  402670:	48 8b 7c 24 08       	mov    0x8(%rsp),%rdi
  402675:	f2 ae                	repnz scas %es:(%rdi),%al
  402677:	48 f7 d1             	not    %rcx
  40267a:	4d 8d 44 08 fe       	lea    -0x2(%r8,%rcx,1),%r8
  40267f:	48 89 f1             	mov    %rsi,%rcx
  402682:	48 8b 7c 24 18       	mov    0x18(%rsp),%rdi
  402687:	f2 ae                	repnz scas %es:(%rdi),%al
  402689:	48 89 c8             	mov    %rcx,%rax
  40268c:	48 f7 d0             	not    %rax
  40268f:	49 8d 4c 00 ff       	lea    -0x1(%r8,%rax,1),%rcx
  402694:	48 8d 44 52 fd       	lea    -0x3(%rdx,%rdx,2),%rax
  402699:	48 8d 84 01 80 00 00 	lea    0x80(%rcx,%rax,1),%rax
  4026a0:	00 
  4026a1:	48 3d 00 20 00 00    	cmp    $0x2000,%rax
  4026a7:	0f 87 d9 02 00 00    	ja     402986 <submitr+0x41e>
  4026ad:	48 8d b4 24 50 40 00 	lea    0x4050(%rsp),%rsi
  4026b4:	00 
  4026b5:	b9 00 04 00 00       	mov    $0x400,%ecx
  4026ba:	b8 00 00 00 00       	mov    $0x0,%eax
  4026bf:	48 89 f7             	mov    %rsi,%rdi
  4026c2:	f3 48 ab             	rep stos %rax,%es:(%rdi)
  4026c5:	4c 89 f7             	mov    %r14,%rdi
  4026c8:	e8 88 fd ff ff       	callq  402455 <urlencode>
  4026cd:	85 c0                	test   %eax,%eax
  4026cf:	0f 88 24 03 00 00    	js     4029f9 <submitr+0x491>
  4026d5:	4c 8d a4 24 50 20 00 	lea    0x2050(%rsp),%r12
  4026dc:	00 
  4026dd:	41 55                	push   %r13
  4026df:	48 8d 84 24 58 40 00 	lea    0x4058(%rsp),%rax
  4026e6:	00 
  4026e7:	50                   	push   %rax
  4026e8:	4d 89 f9             	mov    %r15,%r9
  4026eb:	4c 8b 44 24 18       	mov    0x18(%rsp),%r8
  4026f0:	48 8d 0d 91 10 00 00 	lea    0x1091(%rip),%rcx        # 403788 <trans_char+0x38>
  4026f7:	ba 00 20 00 00       	mov    $0x2000,%edx
  4026fc:	be 01 00 00 00       	mov    $0x1,%esi
  402701:	4c 89 e7             	mov    %r12,%rdi
  402704:	b8 00 00 00 00       	mov    $0x0,%eax
  402709:	e8 52 e7 ff ff       	callq  400e60 <__sprintf_chk@plt>
  40270e:	48 c7 c1 ff ff ff ff 	mov    $0xffffffffffffffff,%rcx
  402715:	b8 00 00 00 00       	mov    $0x0,%eax
  40271a:	4c 89 e7             	mov    %r12,%rdi
  40271d:	f2 ae                	repnz scas %es:(%rdi),%al
  40271f:	48 89 ca             	mov    %rcx,%rdx
  402722:	48 f7 d2             	not    %rdx
  402725:	48 8d 52 ff          	lea    -0x1(%rdx),%rdx
  402729:	4c 89 e6             	mov    %r12,%rsi
  40272c:	89 df                	mov    %ebx,%edi
  40272e:	e8 95 fb ff ff       	callq  4022c8 <rio_writen>
  402733:	48 83 c4 10          	add    $0x10,%rsp
  402737:	48 85 c0             	test   %rax,%rax
  40273a:	0f 88 44 03 00 00    	js     402a84 <submitr+0x51c>
  402740:	4c 8d 64 24 40       	lea    0x40(%rsp),%r12
  402745:	89 de                	mov    %ebx,%esi
  402747:	4c 89 e7             	mov    %r12,%rdi
  40274a:	e8 37 fb ff ff       	callq  402286 <rio_readinitb>
  40274f:	48 8d b4 24 50 20 00 	lea    0x2050(%rsp),%rsi
  402756:	00 
  402757:	ba 00 20 00 00       	mov    $0x2000,%edx
  40275c:	4c 89 e7             	mov    %r12,%rdi
  40275f:	e8 4d fc ff ff       	callq  4023b1 <rio_readlineb>
  402764:	48 85 c0             	test   %rax,%rax
  402767:	0f 8e 86 03 00 00    	jle    402af3 <submitr+0x58b>
  40276d:	48 8d 4c 24 2c       	lea    0x2c(%rsp),%rcx
  402772:	48 8d 94 24 50 60 00 	lea    0x6050(%rsp),%rdx
  402779:	00 
  40277a:	48 8d bc 24 50 20 00 	lea    0x2050(%rsp),%rdi
  402781:	00 
  402782:	4c 8d 84 24 50 80 00 	lea    0x8050(%rsp),%r8
  402789:	00 
  40278a:	48 8d 35 6e 10 00 00 	lea    0x106e(%rip),%rsi        # 4037ff <trans_char+0xaf>
  402791:	b8 00 00 00 00       	mov    $0x0,%eax
  402796:	e8 25 e6 ff ff       	callq  400dc0 <__isoc99_sscanf@plt>
  40279b:	48 8d b4 24 50 20 00 	lea    0x2050(%rsp),%rsi
  4027a2:	00 
  4027a3:	b9 03 00 00 00       	mov    $0x3,%ecx
  4027a8:	48 8d 3d 67 10 00 00 	lea    0x1067(%rip),%rdi        # 403816 <trans_char+0xc6>
  4027af:	f3 a6                	repz cmpsb %es:(%rdi),%ds:(%rsi)
  4027b1:	0f 97 c0             	seta   %al
  4027b4:	1c 00                	sbb    $0x0,%al
  4027b6:	84 c0                	test   %al,%al
  4027b8:	0f 84 b3 03 00 00    	je     402b71 <submitr+0x609>
  4027be:	48 8d b4 24 50 20 00 	lea    0x2050(%rsp),%rsi
  4027c5:	00 
  4027c6:	48 8d 7c 24 40       	lea    0x40(%rsp),%rdi
  4027cb:	ba 00 20 00 00       	mov    $0x2000,%edx
  4027d0:	e8 dc fb ff ff       	callq  4023b1 <rio_readlineb>
  4027d5:	48 85 c0             	test   %rax,%rax
  4027d8:	7f c1                	jg     40279b <submitr+0x233>
  4027da:	48 b8 45 72 72 6f 72 	movabs $0x43203a726f727245,%rax
  4027e1:	3a 20 43 
  4027e4:	48 ba 6c 69 65 6e 74 	movabs $0x6e7520746e65696c,%rdx
  4027eb:	20 75 6e 
  4027ee:	48 89 45 00          	mov    %rax,0x0(%rbp)
  4027f2:	48 89 55 08          	mov    %rdx,0x8(%rbp)
  4027f6:	48 b8 61 62 6c 65 20 	movabs $0x206f7420656c6261,%rax
  4027fd:	74 6f 20 
  402800:	48 ba 72 65 61 64 20 	movabs $0x6165682064616572,%rdx
  402807:	68 65 61 
  40280a:	48 89 45 10          	mov    %rax,0x10(%rbp)
  40280e:	48 89 55 18          	mov    %rdx,0x18(%rbp)
  402812:	48 b8 64 65 72 73 20 	movabs $0x6f72662073726564,%rax
  402819:	66 72 6f 
  40281c:	48 ba 6d 20 74 68 65 	movabs $0x657220656874206d,%rdx
  402823:	20 72 65 
  402826:	48 89 45 20          	mov    %rax,0x20(%rbp)
  40282a:	48 89 55 28          	mov    %rdx,0x28(%rbp)
  40282e:	48 b8 73 75 6c 74 20 	movabs $0x72657320746c7573,%rax
  402835:	73 65 72 
  402838:	48 89 45 30          	mov    %rax,0x30(%rbp)
  40283c:	c7 45 38 76 65 72 00 	movl   $0x726576,0x38(%rbp)
  402843:	89 df                	mov    %ebx,%edi
  402845:	e8 d6 e4 ff ff       	callq  400d20 <close@plt>
  40284a:	b8 ff ff ff ff       	mov    $0xffffffff,%eax
  40284f:	48 8b 9c 24 58 a0 00 	mov    0xa058(%rsp),%rbx
  402856:	00 
  402857:	64 48 33 1c 25 28 00 	xor    %fs:0x28,%rbx
  40285e:	00 00 
  402860:	0f 85 7e 04 00 00    	jne    402ce4 <submitr+0x77c>
  402866:	48 81 c4 68 a0 00 00 	add    $0xa068,%rsp
  40286d:	5b                   	pop    %rbx
  40286e:	5d                   	pop    %rbp
  40286f:	41 5c                	pop    %r12
  402871:	41 5d                	pop    %r13
  402873:	41 5e                	pop    %r14
  402875:	41 5f                	pop    %r15
  402877:	c3                   	retq   
  402878:	48 b8 45 72 72 6f 72 	movabs $0x43203a726f727245,%rax
  40287f:	3a 20 43 
  402882:	48 ba 6c 69 65 6e 74 	movabs $0x6e7520746e65696c,%rdx
  402889:	20 75 6e 
  40288c:	48 89 45 00          	mov    %rax,0x0(%rbp)
  402890:	48 89 55 08          	mov    %rdx,0x8(%rbp)
  402894:	48 b8 61 62 6c 65 20 	movabs $0x206f7420656c6261,%rax
  40289b:	74 6f 20 
  40289e:	48 ba 63 72 65 61 74 	movabs $0x7320657461657263,%rdx
  4028a5:	65 20 73 
  4028a8:	48 89 45 10          	mov    %rax,0x10(%rbp)
  4028ac:	48 89 55 18          	mov    %rdx,0x18(%rbp)
  4028b0:	c7 45 20 6f 63 6b 65 	movl   $0x656b636f,0x20(%rbp)
  4028b7:	66 c7 45 24 74 00    	movw   $0x74,0x24(%rbp)
  4028bd:	b8 ff ff ff ff       	mov    $0xffffffff,%eax
  4028c2:	eb 8b                	jmp    40284f <submitr+0x2e7>
  4028c4:	48 b8 45 72 72 6f 72 	movabs $0x44203a726f727245,%rax
  4028cb:	3a 20 44 
  4028ce:	48 ba 4e 53 20 69 73 	movabs $0x6e7520736920534e,%rdx
  4028d5:	20 75 6e 
  4028d8:	48 89 45 00          	mov    %rax,0x0(%rbp)
  4028dc:	48 89 55 08          	mov    %rdx,0x8(%rbp)
  4028e0:	48 b8 61 62 6c 65 20 	movabs $0x206f7420656c6261,%rax
  4028e7:	74 6f 20 
  4028ea:	48 ba 72 65 73 6f 6c 	movabs $0x2065766c6f736572,%rdx
  4028f1:	76 65 20 
  4028f4:	48 89 45 10          	mov    %rax,0x10(%rbp)
  4028f8:	48 89 55 18          	mov    %rdx,0x18(%rbp)
  4028fc:	48 b8 73 65 72 76 65 	movabs $0x6120726576726573,%rax
  402903:	72 20 61 
  402906:	48 89 45 20          	mov    %rax,0x20(%rbp)
  40290a:	c7 45 28 64 64 72 65 	movl   $0x65726464,0x28(%rbp)
  402911:	66 c7 45 2c 73 73    	movw   $0x7373,0x2c(%rbp)
  402917:	c6 45 2e 00          	movb   $0x0,0x2e(%rbp)
  40291b:	89 df                	mov    %ebx,%edi
  40291d:	e8 fe e3 ff ff       	callq  400d20 <close@plt>
  402922:	b8 ff ff ff ff       	mov    $0xffffffff,%eax
  402927:	e9 23 ff ff ff       	jmpq   40284f <submitr+0x2e7>
  40292c:	48 b8 45 72 72 6f 72 	movabs $0x55203a726f727245,%rax
  402933:	3a 20 55 
  402936:	48 ba 6e 61 62 6c 65 	movabs $0x6f7420656c62616e,%rdx
  40293d:	20 74 6f 
  402940:	48 89 45 00          	mov    %rax,0x0(%rbp)
  402944:	48 89 55 08          	mov    %rdx,0x8(%rbp)
  402948:	48 b8 20 63 6f 6e 6e 	movabs $0x7463656e6e6f6320,%rax
  40294f:	65 63 74 
  402952:	48 ba 20 74 6f 20 74 	movabs $0x20656874206f7420,%rdx
  402959:	68 65 20 
  40295c:	48 89 45 10          	mov    %rax,0x10(%rbp)
  402960:	48 89 55 18          	mov    %rdx,0x18(%rbp)
  402964:	c7 45 20 73 65 72 76 	movl   $0x76726573,0x20(%rbp)
  40296b:	66 c7 45 24 65 72    	movw   $0x7265,0x24(%rbp)
  402971:	c6 45 26 00          	movb   $0x0,0x26(%rbp)
  402975:	89 df                	mov    %ebx,%edi
  402977:	e8 a4 e3 ff ff       	callq  400d20 <close@plt>
  40297c:	b8 ff ff ff ff       	mov    $0xffffffff,%eax
  402981:	e9 c9 fe ff ff       	jmpq   40284f <submitr+0x2e7>
  402986:	48 b8 45 72 72 6f 72 	movabs $0x52203a726f727245,%rax
  40298d:	3a 20 52 
  402990:	48 ba 65 73 75 6c 74 	movabs $0x747320746c757365,%rdx
  402997:	20 73 74 
  40299a:	48 89 45 00          	mov    %rax,0x0(%rbp)
  40299e:	48 89 55 08          	mov    %rdx,0x8(%rbp)
  4029a2:	48 b8 72 69 6e 67 20 	movabs $0x6f6f7420676e6972,%rax
  4029a9:	74 6f 6f 
  4029ac:	48 ba 20 6c 61 72 67 	movabs $0x202e656772616c20,%rdx
  4029b3:	65 2e 20 
  4029b6:	48 89 45 10          	mov    %rax,0x10(%rbp)
  4029ba:	48 89 55 18          	mov    %rdx,0x18(%rbp)
  4029be:	48 b8 49 6e 63 72 65 	movabs $0x6573616572636e49,%rax
  4029c5:	61 73 65 
  4029c8:	48 ba 20 53 55 42 4d 	movabs $0x5254494d42555320,%rdx
  4029cf:	49 54 52 
  4029d2:	48 89 45 20          	mov    %rax,0x20(%rbp)
  4029d6:	48 89 55 28          	mov    %rdx,0x28(%rbp)
  4029da:	48 b8 5f 4d 41 58 42 	movabs $0x46554258414d5f,%rax
  4029e1:	55 46 00 
  4029e4:	48 89 45 30          	mov    %rax,0x30(%rbp)
  4029e8:	89 df                	mov    %ebx,%edi
  4029ea:	e8 31 e3 ff ff       	callq  400d20 <close@plt>
  4029ef:	b8 ff ff ff ff       	mov    $0xffffffff,%eax
  4029f4:	e9 56 fe ff ff       	jmpq   40284f <submitr+0x2e7>
  4029f9:	48 b8 45 72 72 6f 72 	movabs $0x52203a726f727245,%rax
  402a00:	3a 20 52 
  402a03:	48 ba 65 73 75 6c 74 	movabs $0x747320746c757365,%rdx
  402a0a:	20 73 74 
  402a0d:	48 89 45 00          	mov    %rax,0x0(%rbp)
  402a11:	48 89 55 08          	mov    %rdx,0x8(%rbp)
  402a15:	48 b8 72 69 6e 67 20 	movabs $0x6e6f6320676e6972,%rax
  402a1c:	63 6f 6e 
  402a1f:	48 ba 74 61 69 6e 73 	movabs $0x6e6120736e696174,%rdx
  402a26:	20 61 6e 
  402a29:	48 89 45 10          	mov    %rax,0x10(%rbp)
  402a2d:	48 89 55 18          	mov    %rdx,0x18(%rbp)
  402a31:	48 b8 20 69 6c 6c 65 	movabs $0x6c6167656c6c6920,%rax
  402a38:	67 61 6c 
  402a3b:	48 ba 20 6f 72 20 75 	movabs $0x72706e7520726f20,%rdx
  402a42:	6e 70 72 
  402a45:	48 89 45 20          	mov    %rax,0x20(%rbp)
  402a49:	48 89 55 28          	mov    %rdx,0x28(%rbp)
  402a4d:	48 b8 69 6e 74 61 62 	movabs $0x20656c6261746e69,%rax
  402a54:	6c 65 20 
  402a57:	48 ba 63 68 61 72 61 	movabs $0x6574636172616863,%rdx
  402a5e:	63 74 65 
  402a61:	48 89 45 30          	mov    %rax,0x30(%rbp)
  402a65:	48 89 55 38          	mov    %rdx,0x38(%rbp)
  402a69:	66 c7 45 40 72 2e    	movw   $0x2e72,0x40(%rbp)
  402a6f:	c6 45 42 00          	movb   $0x0,0x42(%rbp)
  402a73:	89 df                	mov    %ebx,%edi
  402a75:	e8 a6 e2 ff ff       	callq  400d20 <close@plt>
  402a7a:	b8 ff ff ff ff       	mov    $0xffffffff,%eax
  402a7f:	e9 cb fd ff ff       	jmpq   40284f <submitr+0x2e7>
  402a84:	48 b8 45 72 72 6f 72 	movabs $0x43203a726f727245,%rax
  402a8b:	3a 20 43 
  402a8e:	48 ba 6c 69 65 6e 74 	movabs $0x6e7520746e65696c,%rdx
  402a95:	20 75 6e 
  402a98:	48 89 45 00          	mov    %rax,0x0(%rbp)
  402a9c:	48 89 55 08          	mov    %rdx,0x8(%rbp)
  402aa0:	48 b8 61 62 6c 65 20 	movabs $0x206f7420656c6261,%rax
  402aa7:	74 6f 20 
  402aaa:	48 ba 77 72 69 74 65 	movabs $0x6f74206574697277,%rdx
  402ab1:	20 74 6f 
  402ab4:	48 89 45 10          	mov    %rax,0x10(%rbp)
  402ab8:	48 89 55 18          	mov    %rdx,0x18(%rbp)
  402abc:	48 b8 20 74 68 65 20 	movabs $0x7365722065687420,%rax
  402ac3:	72 65 73 
  402ac6:	48 ba 75 6c 74 20 73 	movabs $0x7672657320746c75,%rdx
  402acd:	65 72 76 
  402ad0:	48 89 45 20          	mov    %rax,0x20(%rbp)
  402ad4:	48 89 55 28          	mov    %rdx,0x28(%rbp)
  402ad8:	66 c7 45 30 65 72    	movw   $0x7265,0x30(%rbp)
  402ade:	c6 45 32 00          	movb   $0x0,0x32(%rbp)
  402ae2:	89 df                	mov    %ebx,%edi
  402ae4:	e8 37 e2 ff ff       	callq  400d20 <close@plt>
  402ae9:	b8 ff ff ff ff       	mov    $0xffffffff,%eax
  402aee:	e9 5c fd ff ff       	jmpq   40284f <submitr+0x2e7>
  402af3:	48 b8 45 72 72 6f 72 	movabs $0x43203a726f727245,%rax
  402afa:	3a 20 43 
  402afd:	48 ba 6c 69 65 6e 74 	movabs $0x6e7520746e65696c,%rdx
  402b04:	20 75 6e 
  402b07:	48 89 45 00          	mov    %rax,0x0(%rbp)
  402b0b:	48 89 55 08          	mov    %rdx,0x8(%rbp)
  402b0f:	48 b8 61 62 6c 65 20 	movabs $0x206f7420656c6261,%rax
  402b16:	74 6f 20 
  402b19:	48 ba 72 65 61 64 20 	movabs $0x7269662064616572,%rdx
  402b20:	66 69 72 
  402b23:	48 89 45 10          	mov    %rax,0x10(%rbp)
  402b27:	48 89 55 18          	mov    %rdx,0x18(%rbp)
  402b2b:	48 b8 73 74 20 68 65 	movabs $0x6564616568207473,%rax
  402b32:	61 64 65 
  402b35:	48 ba 72 20 66 72 6f 	movabs $0x72206d6f72662072,%rdx
  402b3c:	6d 20 72 
  402b3f:	48 89 45 20          	mov    %rax,0x20(%rbp)
  402b43:	48 89 55 28          	mov    %rdx,0x28(%rbp)
  402b47:	48 b8 65 73 75 6c 74 	movabs $0x657320746c757365,%rax
  402b4e:	20 73 65 
  402b51:	48 89 45 30          	mov    %rax,0x30(%rbp)
  402b55:	c7 45 38 72 76 65 72 	movl   $0x72657672,0x38(%rbp)
  402b5c:	c6 45 3c 00          	movb   $0x0,0x3c(%rbp)
  402b60:	89 df                	mov    %ebx,%edi
  402b62:	e8 b9 e1 ff ff       	callq  400d20 <close@plt>
  402b67:	b8 ff ff ff ff       	mov    $0xffffffff,%eax
  402b6c:	e9 de fc ff ff       	jmpq   40284f <submitr+0x2e7>
  402b71:	48 8d b4 24 50 20 00 	lea    0x2050(%rsp),%rsi
  402b78:	00 
  402b79:	48 8d 7c 24 40       	lea    0x40(%rsp),%rdi
  402b7e:	ba 00 20 00 00       	mov    $0x2000,%edx
  402b83:	e8 29 f8 ff ff       	callq  4023b1 <rio_readlineb>
  402b88:	48 85 c0             	test   %rax,%rax
  402b8b:	0f 8e 96 00 00 00    	jle    402c27 <submitr+0x6bf>
  402b91:	44 8b 44 24 2c       	mov    0x2c(%rsp),%r8d
  402b96:	41 81 f8 c8 00 00 00 	cmp    $0xc8,%r8d
  402b9d:	0f 85 08 01 00 00    	jne    402cab <submitr+0x743>
  402ba3:	48 8d b4 24 50 20 00 	lea    0x2050(%rsp),%rsi
  402baa:	00 
  402bab:	48 89 ef             	mov    %rbp,%rdi
  402bae:	e8 fd e0 ff ff       	callq  400cb0 <strcpy@plt>
  402bb3:	89 df                	mov    %ebx,%edi
  402bb5:	e8 66 e1 ff ff       	callq  400d20 <close@plt>
  402bba:	b9 04 00 00 00       	mov    $0x4,%ecx
  402bbf:	48 8d 3d 4a 0c 00 00 	lea    0xc4a(%rip),%rdi        # 403810 <trans_char+0xc0>
  402bc6:	48 89 ee             	mov    %rbp,%rsi
  402bc9:	f3 a6                	repz cmpsb %es:(%rdi),%ds:(%rsi)
  402bcb:	0f 97 c0             	seta   %al
  402bce:	1c 00                	sbb    $0x0,%al
  402bd0:	0f be c0             	movsbl %al,%eax
  402bd3:	85 c0                	test   %eax,%eax
  402bd5:	0f 84 74 fc ff ff    	je     40284f <submitr+0x2e7>
  402bdb:	b9 05 00 00 00       	mov    $0x5,%ecx
  402be0:	48 8d 3d 2d 0c 00 00 	lea    0xc2d(%rip),%rdi        # 403814 <trans_char+0xc4>
  402be7:	48 89 ee             	mov    %rbp,%rsi
  402bea:	f3 a6                	repz cmpsb %es:(%rdi),%ds:(%rsi)
  402bec:	0f 97 c0             	seta   %al
  402bef:	1c 00                	sbb    $0x0,%al
  402bf1:	0f be c0             	movsbl %al,%eax
  402bf4:	85 c0                	test   %eax,%eax
  402bf6:	0f 84 53 fc ff ff    	je     40284f <submitr+0x2e7>
  402bfc:	b9 03 00 00 00       	mov    $0x3,%ecx
  402c01:	48 8d 3d 11 0c 00 00 	lea    0xc11(%rip),%rdi        # 403819 <trans_char+0xc9>
  402c08:	48 89 ee             	mov    %rbp,%rsi
  402c0b:	f3 a6                	repz cmpsb %es:(%rdi),%ds:(%rsi)
  402c0d:	0f 97 c0             	seta   %al
  402c10:	1c 00                	sbb    $0x0,%al
  402c12:	0f be c0             	movsbl %al,%eax
  402c15:	85 c0                	test   %eax,%eax
  402c17:	0f 84 32 fc ff ff    	je     40284f <submitr+0x2e7>
  402c1d:	b8 ff ff ff ff       	mov    $0xffffffff,%eax
  402c22:	e9 28 fc ff ff       	jmpq   40284f <submitr+0x2e7>
  402c27:	48 b8 45 72 72 6f 72 	movabs $0x43203a726f727245,%rax
  402c2e:	3a 20 43 
  402c31:	48 ba 6c 69 65 6e 74 	movabs $0x6e7520746e65696c,%rdx
  402c38:	20 75 6e 
  402c3b:	48 89 45 00          	mov    %rax,0x0(%rbp)
  402c3f:	48 89 55 08          	mov    %rdx,0x8(%rbp)
  402c43:	48 b8 61 62 6c 65 20 	movabs $0x206f7420656c6261,%rax
  402c4a:	74 6f 20 
  402c4d:	48 ba 72 65 61 64 20 	movabs $0x6174732064616572,%rdx
  402c54:	73 74 61 
  402c57:	48 89 45 10          	mov    %rax,0x10(%rbp)
  402c5b:	48 89 55 18          	mov    %rdx,0x18(%rbp)
  402c5f:	48 b8 74 75 73 20 6d 	movabs $0x7373656d20737574,%rax
  402c66:	65 73 73 
  402c69:	48 ba 61 67 65 20 66 	movabs $0x6d6f726620656761,%rdx
  402c70:	72 6f 6d 
  402c73:	48 89 45 20          	mov    %rax,0x20(%rbp)
  402c77:	48 89 55 28          	mov    %rdx,0x28(%rbp)
  402c7b:	48 b8 20 72 65 73 75 	movabs $0x20746c7573657220,%rax
  402c82:	6c 74 20 
  402c85:	48 89 45 30          	mov    %rax,0x30(%rbp)
  402c89:	c7 45 38 73 65 72 76 	movl   $0x76726573,0x38(%rbp)
  402c90:	66 c7 45 3c 65 72    	movw   $0x7265,0x3c(%rbp)
  402c96:	c6 45 3e 00          	movb   $0x0,0x3e(%rbp)
  402c9a:	89 df                	mov    %ebx,%edi
  402c9c:	e8 7f e0 ff ff       	callq  400d20 <close@plt>
  402ca1:	b8 ff ff ff ff       	mov    $0xffffffff,%eax
  402ca6:	e9 a4 fb ff ff       	jmpq   40284f <submitr+0x2e7>
  402cab:	4c 8d 8c 24 50 80 00 	lea    0x8050(%rsp),%r9
  402cb2:	00 
  402cb3:	48 8d 0d 0e 0b 00 00 	lea    0xb0e(%rip),%rcx        # 4037c8 <trans_char+0x78>
  402cba:	48 c7 c2 ff ff ff ff 	mov    $0xffffffffffffffff,%rdx
  402cc1:	be 01 00 00 00       	mov    $0x1,%esi
  402cc6:	48 89 ef             	mov    %rbp,%rdi
  402cc9:	b8 00 00 00 00       	mov    $0x0,%eax
  402cce:	e8 8d e1 ff ff       	callq  400e60 <__sprintf_chk@plt>
  402cd3:	89 df                	mov    %ebx,%edi
  402cd5:	e8 46 e0 ff ff       	callq  400d20 <close@plt>
  402cda:	b8 ff ff ff ff       	mov    $0xffffffff,%eax
  402cdf:	e9 6b fb ff ff       	jmpq   40284f <submitr+0x2e7>
  402ce4:	e8 f7 df ff ff       	callq  400ce0 <__stack_chk_fail@plt>

0000000000402ce9 <init_timeout>:
  402ce9:	85 ff                	test   %edi,%edi
  402ceb:	74 28                	je     402d15 <init_timeout+0x2c>
  402ced:	53                   	push   %rbx
  402cee:	89 fb                	mov    %edi,%ebx
  402cf0:	85 ff                	test   %edi,%edi
  402cf2:	78 1a                	js     402d0e <init_timeout+0x25>
  402cf4:	48 8d 35 9d f5 ff ff 	lea    -0xa63(%rip),%rsi        # 402298 <sigalrm_handler>
  402cfb:	bf 0e 00 00 00       	mov    $0xe,%edi
  402d00:	e8 3b e0 ff ff       	callq  400d40 <signal@plt>
  402d05:	89 df                	mov    %ebx,%edi
  402d07:	e8 04 e0 ff ff       	callq  400d10 <alarm@plt>
  402d0c:	5b                   	pop    %rbx
  402d0d:	c3                   	retq   
  402d0e:	bb 00 00 00 00       	mov    $0x0,%ebx
  402d13:	eb df                	jmp    402cf4 <init_timeout+0xb>
  402d15:	f3 c3                	repz retq 

0000000000402d17 <init_driver>:
  402d17:	41 54                	push   %r12
  402d19:	55                   	push   %rbp
  402d1a:	53                   	push   %rbx
  402d1b:	48 83 ec 20          	sub    $0x20,%rsp
  402d1f:	49 89 fc             	mov    %rdi,%r12
  402d22:	64 48 8b 04 25 28 00 	mov    %fs:0x28,%rax
  402d29:	00 00 
  402d2b:	48 89 44 24 18       	mov    %rax,0x18(%rsp)
  402d30:	31 c0                	xor    %eax,%eax
  402d32:	be 01 00 00 00       	mov    $0x1,%esi
  402d37:	bf 0d 00 00 00       	mov    $0xd,%edi
  402d3c:	e8 ff df ff ff       	callq  400d40 <signal@plt>
  402d41:	be 01 00 00 00       	mov    $0x1,%esi
  402d46:	bf 1d 00 00 00       	mov    $0x1d,%edi
  402d4b:	e8 f0 df ff ff       	callq  400d40 <signal@plt>
  402d50:	be 01 00 00 00       	mov    $0x1,%esi
  402d55:	bf 1d 00 00 00       	mov    $0x1d,%edi
  402d5a:	e8 e1 df ff ff       	callq  400d40 <signal@plt>
  402d5f:	ba 00 00 00 00       	mov    $0x0,%edx
  402d64:	be 01 00 00 00       	mov    $0x1,%esi
  402d69:	bf 02 00 00 00       	mov    $0x2,%edi
  402d6e:	e8 fd e0 ff ff       	callq  400e70 <socket@plt>
  402d73:	85 c0                	test   %eax,%eax
  402d75:	0f 88 a3 00 00 00    	js     402e1e <init_driver+0x107>
  402d7b:	89 c3                	mov    %eax,%ebx
  402d7d:	48 8d 3d 98 0a 00 00 	lea    0xa98(%rip),%rdi        # 40381c <trans_char+0xcc>
  402d84:	e8 c7 df ff ff       	callq  400d50 <gethostbyname@plt>
  402d89:	48 85 c0             	test   %rax,%rax
  402d8c:	0f 84 df 00 00 00    	je     402e71 <init_driver+0x15a>
  402d92:	48 89 e5             	mov    %rsp,%rbp
  402d95:	48 c7 44 24 02 00 00 	movq   $0x0,0x2(%rsp)
  402d9c:	00 00 
  402d9e:	c7 45 0a 00 00 00 00 	movl   $0x0,0xa(%rbp)
  402da5:	66 c7 45 0e 00 00    	movw   $0x0,0xe(%rbp)
  402dab:	66 c7 04 24 02 00    	movw   $0x2,(%rsp)
  402db1:	48 63 50 14          	movslq 0x14(%rax),%rdx
  402db5:	48 8b 40 18          	mov    0x18(%rax),%rax
  402db9:	48 8b 30             	mov    (%rax),%rsi
  402dbc:	48 8d 7d 04          	lea    0x4(%rbp),%rdi
  402dc0:	b9 0c 00 00 00       	mov    $0xc,%ecx
  402dc5:	e8 96 df ff ff       	callq  400d60 <__memmove_chk@plt>
  402dca:	66 c7 44 24 02 1f 44 	movw   $0x441f,0x2(%rsp)
  402dd1:	ba 10 00 00 00       	mov    $0x10,%edx
  402dd6:	48 89 ee             	mov    %rbp,%rsi
  402dd9:	89 df                	mov    %ebx,%edi
  402ddb:	e8 60 e0 ff ff       	callq  400e40 <connect@plt>
  402de0:	85 c0                	test   %eax,%eax
  402de2:	0f 88 fb 00 00 00    	js     402ee3 <init_driver+0x1cc>
  402de8:	89 df                	mov    %ebx,%edi
  402dea:	e8 31 df ff ff       	callq  400d20 <close@plt>
  402def:	66 41 c7 04 24 4f 4b 	movw   $0x4b4f,(%r12)
  402df6:	41 c6 44 24 02 00    	movb   $0x0,0x2(%r12)
  402dfc:	b8 00 00 00 00       	mov    $0x0,%eax
  402e01:	48 8b 4c 24 18       	mov    0x18(%rsp),%rcx
  402e06:	64 48 33 0c 25 28 00 	xor    %fs:0x28,%rcx
  402e0d:	00 00 
  402e0f:	0f 85 28 01 00 00    	jne    402f3d <init_driver+0x226>
  402e15:	48 83 c4 20          	add    $0x20,%rsp
  402e19:	5b                   	pop    %rbx
  402e1a:	5d                   	pop    %rbp
  402e1b:	41 5c                	pop    %r12
  402e1d:	c3                   	retq   
  402e1e:	48 b8 45 72 72 6f 72 	movabs $0x43203a726f727245,%rax
  402e25:	3a 20 43 
  402e28:	48 ba 6c 69 65 6e 74 	movabs $0x6e7520746e65696c,%rdx
  402e2f:	20 75 6e 
  402e32:	49 89 04 24          	mov    %rax,(%r12)
  402e36:	49 89 54 24 08       	mov    %rdx,0x8(%r12)
  402e3b:	48 b8 61 62 6c 65 20 	movabs $0x206f7420656c6261,%rax
  402e42:	74 6f 20 
  402e45:	48 ba 63 72 65 61 74 	movabs $0x7320657461657263,%rdx
  402e4c:	65 20 73 
  402e4f:	49 89 44 24 10       	mov    %rax,0x10(%r12)
  402e54:	49 89 54 24 18       	mov    %rdx,0x18(%r12)
  402e59:	41 c7 44 24 20 6f 63 	movl   $0x656b636f,0x20(%r12)
  402e60:	6b 65 
  402e62:	66 41 c7 44 24 24 74 	movw   $0x74,0x24(%r12)
  402e69:	00 
  402e6a:	b8 ff ff ff ff       	mov    $0xffffffff,%eax
  402e6f:	eb 90                	jmp    402e01 <init_driver+0xea>
  402e71:	48 b8 45 72 72 6f 72 	movabs $0x44203a726f727245,%rax
  402e78:	3a 20 44 
  402e7b:	48 ba 4e 53 20 69 73 	movabs $0x6e7520736920534e,%rdx
  402e82:	20 75 6e 
  402e85:	49 89 04 24          	mov    %rax,(%r12)
  402e89:	49 89 54 24 08       	mov    %rdx,0x8(%r12)
  402e8e:	48 b8 61 62 6c 65 20 	movabs $0x206f7420656c6261,%rax
  402e95:	74 6f 20 
  402e98:	48 ba 72 65 73 6f 6c 	movabs $0x2065766c6f736572,%rdx
  402e9f:	76 65 20 
  402ea2:	49 89 44 24 10       	mov    %rax,0x10(%r12)
  402ea7:	49 89 54 24 18       	mov    %rdx,0x18(%r12)
  402eac:	48 b8 73 65 72 76 65 	movabs $0x6120726576726573,%rax
  402eb3:	72 20 61 
  402eb6:	49 89 44 24 20       	mov    %rax,0x20(%r12)
  402ebb:	41 c7 44 24 28 64 64 	movl   $0x65726464,0x28(%r12)
  402ec2:	72 65 
  402ec4:	66 41 c7 44 24 2c 73 	movw   $0x7373,0x2c(%r12)
  402ecb:	73 
  402ecc:	41 c6 44 24 2e 00    	movb   $0x0,0x2e(%r12)
  402ed2:	89 df                	mov    %ebx,%edi
  402ed4:	e8 47 de ff ff       	callq  400d20 <close@plt>
  402ed9:	b8 ff ff ff ff       	mov    $0xffffffff,%eax
  402ede:	e9 1e ff ff ff       	jmpq   402e01 <init_driver+0xea>
  402ee3:	48 b8 45 72 72 6f 72 	movabs $0x55203a726f727245,%rax
  402eea:	3a 20 55 
  402eed:	48 ba 6e 61 62 6c 65 	movabs $0x6f7420656c62616e,%rdx
  402ef4:	20 74 6f 
  402ef7:	49 89 04 24          	mov    %rax,(%r12)
  402efb:	49 89 54 24 08       	mov    %rdx,0x8(%r12)
  402f00:	48 b8 20 63 6f 6e 6e 	movabs $0x7463656e6e6f6320,%rax
  402f07:	65 63 74 
  402f0a:	48 ba 20 74 6f 20 73 	movabs $0x76726573206f7420,%rdx
  402f11:	65 72 76 
  402f14:	49 89 44 24 10       	mov    %rax,0x10(%r12)
  402f19:	49 89 54 24 18       	mov    %rdx,0x18(%r12)
  402f1e:	66 41 c7 44 24 20 65 	movw   $0x7265,0x20(%r12)
  402f25:	72 
  402f26:	41 c6 44 24 22 00    	movb   $0x0,0x22(%r12)
  402f2c:	89 df                	mov    %ebx,%edi
  402f2e:	e8 ed dd ff ff       	callq  400d20 <close@plt>
  402f33:	b8 ff ff ff ff       	mov    $0xffffffff,%eax
  402f38:	e9 c4 fe ff ff       	jmpq   402e01 <init_driver+0xea>
  402f3d:	e8 9e dd ff ff       	callq  400ce0 <__stack_chk_fail@plt>

0000000000402f42 <driver_post>:
  402f42:	53                   	push   %rbx
  402f43:	4c 89 cb             	mov    %r9,%rbx
  402f46:	45 85 c0             	test   %r8d,%r8d
  402f49:	75 18                	jne    402f63 <driver_post+0x21>
  402f4b:	48 85 ff             	test   %rdi,%rdi
  402f4e:	74 05                	je     402f55 <driver_post+0x13>
  402f50:	80 3f 00             	cmpb   $0x0,(%rdi)
  402f53:	75 37                	jne    402f8c <driver_post+0x4a>
  402f55:	66 c7 03 4f 4b       	movw   $0x4b4f,(%rbx)
  402f5a:	c6 43 02 00          	movb   $0x0,0x2(%rbx)
  402f5e:	44 89 c0             	mov    %r8d,%eax
  402f61:	5b                   	pop    %rbx
  402f62:	c3                   	retq   
  402f63:	48 89 ca             	mov    %rcx,%rdx
  402f66:	48 8d 35 bf 08 00 00 	lea    0x8bf(%rip),%rsi        # 40382c <trans_char+0xdc>
  402f6d:	bf 01 00 00 00       	mov    $0x1,%edi
  402f72:	b8 00 00 00 00       	mov    $0x0,%eax
  402f77:	e8 64 de ff ff       	callq  400de0 <__printf_chk@plt>
  402f7c:	66 c7 03 4f 4b       	movw   $0x4b4f,(%rbx)
  402f81:	c6 43 02 00          	movb   $0x0,0x2(%rbx)
  402f85:	b8 00 00 00 00       	mov    $0x0,%eax
  402f8a:	eb d5                	jmp    402f61 <driver_post+0x1f>
  402f8c:	48 83 ec 08          	sub    $0x8,%rsp
  402f90:	41 51                	push   %r9
  402f92:	49 89 c9             	mov    %rcx,%r9
  402f95:	49 89 d0             	mov    %rdx,%r8
  402f98:	48 89 f9             	mov    %rdi,%rcx
  402f9b:	48 89 f2             	mov    %rsi,%rdx
  402f9e:	be 44 1f 00 00       	mov    $0x1f44,%esi
  402fa3:	48 8d 3d 72 08 00 00 	lea    0x872(%rip),%rdi        # 40381c <trans_char+0xcc>
  402faa:	e8 b9 f5 ff ff       	callq  402568 <submitr>
  402faf:	48 83 c4 10          	add    $0x10,%rsp
  402fb3:	eb ac                	jmp    402f61 <driver_post+0x1f>

0000000000402fb5 <check>:
  402fb5:	89 f8                	mov    %edi,%eax
  402fb7:	c1 e8 1c             	shr    $0x1c,%eax
  402fba:	85 c0                	test   %eax,%eax
  402fbc:	74 1d                	je     402fdb <check+0x26>
  402fbe:	b9 00 00 00 00       	mov    $0x0,%ecx
  402fc3:	83 f9 1f             	cmp    $0x1f,%ecx
  402fc6:	7f 0d                	jg     402fd5 <check+0x20>
  402fc8:	89 f8                	mov    %edi,%eax
  402fca:	d3 e8                	shr    %cl,%eax
  402fcc:	3c 0a                	cmp    $0xa,%al
  402fce:	74 11                	je     402fe1 <check+0x2c>
  402fd0:	83 c1 08             	add    $0x8,%ecx
  402fd3:	eb ee                	jmp    402fc3 <check+0xe>
  402fd5:	b8 01 00 00 00       	mov    $0x1,%eax
  402fda:	c3                   	retq   
  402fdb:	b8 00 00 00 00       	mov    $0x0,%eax
  402fe0:	c3                   	retq   
  402fe1:	b8 00 00 00 00       	mov    $0x0,%eax
  402fe6:	c3                   	retq   

0000000000402fe7 <gencookie>:
  402fe7:	53                   	push   %rbx
  402fe8:	83 c7 01             	add    $0x1,%edi
  402feb:	e8 a0 dc ff ff       	callq  400c90 <srandom@plt>
  402ff0:	e8 ab dd ff ff       	callq  400da0 <random@plt>
  402ff5:	89 c3                	mov    %eax,%ebx
  402ff7:	89 c7                	mov    %eax,%edi
  402ff9:	e8 b7 ff ff ff       	callq  402fb5 <check>
  402ffe:	85 c0                	test   %eax,%eax
  403000:	74 ee                	je     402ff0 <gencookie+0x9>
  403002:	89 d8                	mov    %ebx,%eax
  403004:	5b                   	pop    %rbx
  403005:	c3                   	retq   
  403006:	66 2e 0f 1f 84 00 00 	nopw   %cs:0x0(%rax,%rax,1)
  40300d:	00 00 00 

0000000000403010 <__libc_csu_init>:
  403010:	41 57                	push   %r15
  403012:	41 56                	push   %r14
  403014:	49 89 d7             	mov    %rdx,%r15
  403017:	41 55                	push   %r13
  403019:	41 54                	push   %r12
  40301b:	4c 8d 25 ee 1d 20 00 	lea    0x201dee(%rip),%r12        # 604e10 <__frame_dummy_init_array_entry>
  403022:	55                   	push   %rbp
  403023:	48 8d 2d ee 1d 20 00 	lea    0x201dee(%rip),%rbp        # 604e18 <__init_array_end>
  40302a:	53                   	push   %rbx
  40302b:	41 89 fd             	mov    %edi,%r13d
  40302e:	49 89 f6             	mov    %rsi,%r14
  403031:	4c 29 e5             	sub    %r12,%rbp
  403034:	48 83 ec 08          	sub    $0x8,%rsp
  403038:	48 c1 fd 03          	sar    $0x3,%rbp
  40303c:	e8 07 dc ff ff       	callq  400c48 <_init>
  403041:	48 85 ed             	test   %rbp,%rbp
  403044:	74 20                	je     403066 <__libc_csu_init+0x56>
  403046:	31 db                	xor    %ebx,%ebx
  403048:	0f 1f 84 00 00 00 00 	nopl   0x0(%rax,%rax,1)
  40304f:	00 
  403050:	4c 89 fa             	mov    %r15,%rdx
  403053:	4c 89 f6             	mov    %r14,%rsi
  403056:	44 89 ef             	mov    %r13d,%edi
  403059:	41 ff 14 dc          	callq  *(%r12,%rbx,8)
  40305d:	48 83 c3 01          	add    $0x1,%rbx
  403061:	48 39 dd             	cmp    %rbx,%rbp
  403064:	75 ea                	jne    403050 <__libc_csu_init+0x40>
  403066:	48 83 c4 08          	add    $0x8,%rsp
  40306a:	5b                   	pop    %rbx
  40306b:	5d                   	pop    %rbp
  40306c:	41 5c                	pop    %r12
  40306e:	41 5d                	pop    %r13
  403070:	41 5e                	pop    %r14
  403072:	41 5f                	pop    %r15
  403074:	c3                   	retq   
  403075:	90                   	nop
  403076:	66 2e 0f 1f 84 00 00 	nopw   %cs:0x0(%rax,%rax,1)
  40307d:	00 00 00 

0000000000403080 <__libc_csu_fini>:
  403080:	f3 c3                	repz retq 

Disassembly of section .fini:

0000000000403084 <_fini>:
  403084:	48 83 ec 08          	sub    $0x8,%rsp
  403088:	48 83 c4 08          	add    $0x8,%rsp
  40308c:	c3                   	retq   
